Archive member included to satisfy reference by file (symbol)

libbb/lib.a(appletlib.o)      /mnt/md0/miranda/openwrt/staging_dir/toolchain-mips_24kc_gcc-12.3.0_musl/lib/gcc/mips-openwrt-linux-musl/12.3.0/../../../../mips-openwrt-linux-musl/lib/crt1.o (main)
libbb/lib.a(compare_string_array.o)
                              appletlib.o (symbol from plugin) (is_prefixed_with)
libbb/lib.a(default_error_retval.o)
                              appletlib.o (symbol from plugin) (xfunc_error_retval)
libbb/lib.a(get_last_path_component.o)
                              appletlib.o (symbol from plugin) (bb_basename)
libbb/lib.a(last_char_is.o)   get_last_path_component.o (symbol from plugin) (last_char_is)
libbb/lib.a(messages.o)       appletlib.o (symbol from plugin) (bb_banner)
libbb/lib.a(ptr_to_globals.o)
                              appletlib.o (symbol from plugin) (bb_errno)
libbb/lib.a(vfork_daemon_rexec.o)
                              appletlib.o (symbol from plugin) (re_execed_comm)
libbb/lib.a(xfunc_die.o)      appletlib.o (symbol from plugin) (xfunc_die)
libbb/lib.a(xfuncs.o)         appletlib.o (symbol from plugin) (full_write2_str)
libbb/lib.a(xfuncs_printf.o)  vfork_daemon_rexec.o (symbol from plugin) (xopen)
libbb/lib.a(copyfd.o)         xfuncs_printf.o (symbol from plugin) (bb_copyfd_eof)
libbb/lib.a(executable.o)     vfork_daemon_rexec.o (symbol from plugin) (BB_EXECVP)
libbb/lib.a(full_write.o)     xfuncs.o (symbol from plugin) (full_write)
libbb/lib.a(getopt32.o)       vfork_daemon_rexec.o (symbol from plugin) (option_mask32)
libbb/lib.a(llist.o)          getopt32.o (symbol from plugin) (llist_add_to_end)
libbb/lib.a(perror_msg.o)     xfuncs_printf.o (symbol from plugin) (bb_perror_msg)
libbb/lib.a(read.o)           copyfd.o (symbol from plugin) (safe_read)
libbb/lib.a(safe_strncpy.o)   getopt32.o (symbol from plugin) (overlapping_strcpy)
libbb/lib.a(safe_write.o)     full_write.o (symbol from plugin) (safe_write)
libbb/lib.a(signals.o)        xfuncs_printf.o (symbol from plugin) (kill_myself_with_sig)
libbb/lib.a(time.o)           xfuncs_printf.o (symbol from plugin) (monotonic_us)
libbb/lib.a(verror_msg.o)     xfuncs_printf.o (symbol from plugin) (bb_verror_msg)
libbb/lib.a(xatonum.o)        getopt32.o (symbol from plugin) (xatoi_positive)
libbb/lib.a(bb_strtonum.o)    time.o (symbol from plugin) (bb_strtoll)
libbb/lib.a(concat_path_file.o)
                              executable.o (symbol from plugin) (concat_path_file)
loginutils/lib.a(login.o)     appletlib.o (symbol from plugin) (login_main)
loginutils/lib.a(passwd.o)    appletlib.o (symbol from plugin) (passwd_main)
miscutils/lib.a(crond.o)      appletlib.o (symbol from plugin) (crond_main)
miscutils/lib.a(crontab.o)    appletlib.o (symbol from plugin) (crontab_main)
miscutils/lib.a(less.o)       appletlib.o (symbol from plugin) (less_main)
miscutils/lib.a(lock.o)       appletlib.o (symbol from plugin) (lock_main)
miscutils/lib.a(strings.o)    appletlib.o (symbol from plugin) (strings_main)
miscutils/lib.a(time.o)       appletlib.o (symbol from plugin) (time_main)
networking/lib.a(brctl.o)     appletlib.o (symbol from plugin) (brctl_main)
networking/lib.a(ifconfig.o)  appletlib.o (symbol from plugin) (ifconfig_main)
networking/lib.a(interface.o)
                              ifconfig.o (symbol from plugin) (display_interfaces)
networking/lib.a(ip.o)        appletlib.o (symbol from plugin) (ip_main)
networking/lib.a(nc.o)        appletlib.o (symbol from plugin) (nc_main)
networking/lib.a(netmsg.o)    appletlib.o (symbol from plugin) (netmsg_main)
networking/lib.a(netstat.o)   appletlib.o (symbol from plugin) (netstat_main)
networking/lib.a(nslookup.o)  appletlib.o (symbol from plugin) (nslookup_main)
networking/lib.a(ntpd.o)      appletlib.o (symbol from plugin) (ntpd_main)
networking/lib.a(ping.o)      appletlib.o (symbol from plugin) (ping_main)
networking/lib.a(route.o)     netstat.o (symbol from plugin) (bb_displayroutes)
networking/lib.a(traceroute.o)
                              appletlib.o (symbol from plugin) (traceroute_main)
networking/libiproute/lib.a(ip_parse_common_args.o)
                              ip.o (symbol from plugin) (ip_parse_common_args)
networking/libiproute/lib.a(ipaddress.o)
                              ip.o (symbol from plugin) (do_ipaddr)
networking/libiproute/lib.a(iplink.o)
                              ip.o (symbol from plugin) (do_iplink)
networking/libiproute/lib.a(ipneigh.o)
                              ip.o (symbol from plugin) (do_ipneigh)
networking/libiproute/lib.a(iproute.o)
                              ip.o (symbol from plugin) (do_iproute)
networking/libiproute/lib.a(iprule.o)
                              ip.o (symbol from plugin) (do_iprule)
networking/libiproute/lib.a(libnetlink.o)
                              ipaddress.o (symbol from plugin) (xrtnl_open)
networking/libiproute/lib.a(ll_addr.o)
                              ipaddress.o (symbol from plugin) (ll_addr_n2a)
networking/libiproute/lib.a(ll_map.o)
                              ipaddress.o (symbol from plugin) (ll_remember_index)
networking/libiproute/lib.a(ll_types.o)
                              ipaddress.o (symbol from plugin) (ll_type_n2a)
networking/libiproute/lib.a(rt_names.o)
                              iproute.o (symbol from plugin) (rtnl_rtprot_a2n)
networking/libiproute/lib.a(rtm_map.o)
                              iproute.o (symbol from plugin) (rtnl_rtntype_n2a)
networking/libiproute/lib.a(utils.o)
                              ipneigh.o (symbol from plugin) (get_hz)
networking/udhcp/lib.a(dhcpc.o)
                              appletlib.o (symbol from plugin) (udhcpc_main)
networking/udhcp/lib.a(domain_codec.o)
                              dhcpc.o (symbol from plugin) (dname_dec)
networking/udhcp/lib.a(packet.o)
                              dhcpc.o (symbol from plugin) (udhcp_init_header)
networking/udhcp/lib.a(signalpipe.o)
                              dhcpc.o (symbol from plugin) (udhcp_sp_setup)
networking/udhcp/lib.a(socket.o)
                              dhcpc.o (symbol from plugin) (udhcp_read_interface)
networking/udhcp/lib.a(common.o)
                              dhcpc.o (symbol from plugin) (udhcp_option_idx)
procps/lib.a(free.o)          appletlib.o (symbol from plugin) (free_main)
procps/lib.a(kill.o)          appletlib.o (symbol from plugin) (kill_main)
procps/lib.a(pgrep.o)         appletlib.o (symbol from plugin) (pgrep_main)
procps/lib.a(pidof.o)         appletlib.o (symbol from plugin) (pidof_main)
procps/lib.a(ps.o)            appletlib.o (symbol from plugin) (ps_main)
procps/lib.a(sysctl.o)        appletlib.o (symbol from plugin) (sysctl_main)
procps/lib.a(top.o)           appletlib.o (symbol from plugin) (top_main)
procps/lib.a(uptime.o)        appletlib.o (symbol from plugin) (uptime_main)
shell/lib.a(ash.o)            appletlib.o (symbol from plugin) (ash_main)
shell/lib.a(ash_ptr_hack.o)   ash.o (symbol from plugin) (ash_ptr_to_globals_var)
shell/lib.a(math.o)           ash.o (symbol from plugin) (arith)
shell/lib.a(random.o)         ash.o (symbol from plugin) (next_random)
shell/lib.a(shell_common.o)   ash.o (symbol from plugin) (shell_builtin_read)
sysklogd/lib.a(syslogd_and_logger.o)
                              appletlib.o (symbol from plugin) (logger_main)
util-linux/lib.a(dmesg.o)     appletlib.o (symbol from plugin) (dmesg_main)
util-linux/lib.a(flock.o)     appletlib.o (symbol from plugin) (flock_main)
util-linux/lib.a(hexdump.o)   appletlib.o (symbol from plugin) (hexdump_main)
util-linux/lib.a(hwclock.o)   appletlib.o (symbol from plugin) (hwclock_main)
util-linux/lib.a(mkswap.o)    appletlib.o (symbol from plugin) (mkswap_main)
util-linux/lib.a(mount.o)     appletlib.o (symbol from plugin) (mount_main)
util-linux/lib.a(pivot_root.o)
                              appletlib.o (symbol from plugin) (pivot_root_main)
util-linux/lib.a(swaponoff.o)
                              appletlib.o (symbol from plugin) (swap_on_off_main)
util-linux/lib.a(switch_root.o)
                              appletlib.o (symbol from plugin) (switch_root_main)
util-linux/lib.a(taskset.o)   appletlib.o (symbol from plugin) (taskset_main)
util-linux/lib.a(umount.o)    appletlib.o (symbol from plugin) (umount_main)
archival/lib.a(bbunzip.o)     appletlib.o (symbol from plugin) (gunzip_main)
archival/lib.a(gzip.o)        appletlib.o (symbol from plugin) (gzip_main)
archival/lib.a(tar.o)         appletlib.o (symbol from plugin) (tar_main)
archival/lib.a(chksum_and_xwrite_tar_header.o)
                              tar.o (symbol from plugin) (chksum_and_xwrite_tar_header)
archival/libarchive/lib.a(data_extract_all.o)
                              tar.o (symbol from plugin) (data_extract_all)
archival/libarchive/lib.a(data_extract_to_stdout.o)
                              tar.o (symbol from plugin) (data_extract_to_stdout)
archival/libarchive/lib.a(data_skip.o)
                              data_extract_all.o (symbol from plugin) (data_skip)
archival/libarchive/lib.a(decompress_gunzip.o)
                              bbunzip.o (symbol from plugin) (unpack_gz_stream)
archival/libarchive/lib.a(filter_accept_reject_list.o)
                              tar.o (symbol from plugin) (filter_accept_reject_list)
archival/libarchive/lib.a(find_list_entry.o)
                              tar.o (symbol from plugin) (find_list_entry)
archival/libarchive/lib.a(get_header_tar.o)
                              tar.o (symbol from plugin) (get_header_tar)
archival/libarchive/lib.a(header_list.o)
                              tar.o (symbol from plugin) (header_list)
archival/libarchive/lib.a(header_verbose_list.o)
                              tar.o (symbol from plugin) (header_verbose_list)
archival/libarchive/lib.a(init_handle.o)
                              tar.o (symbol from plugin) (init_handle)
archival/libarchive/lib.a(open_transformer.o)
                              bbunzip.o (symbol from plugin) (init_transformer_state)
archival/libarchive/lib.a(seek_by_jump.o)
                              init_handle.o (symbol from plugin) (seek_by_jump)
archival/libarchive/lib.a(seek_by_read.o)
                              tar.o (symbol from plugin) (seek_by_read)
archival/libarchive/lib.a(unsafe_prefix.o)
                              tar.o (symbol from plugin) (strip_unsafe_prefix)
archival/libarchive/lib.a(unsafe_symlink_target.o)
                              data_extract_all.o (symbol from plugin) (create_or_remember_link)
archival/libarchive/lib.a(data_align.o)
                              get_header_tar.o (symbol from plugin) (data_align)
archival/libarchive/lib.a(filter_accept_all.o)
                              init_handle.o (symbol from plugin) (filter_accept_all)
archival/libarchive/lib.a(header_skip.o)
                              init_handle.o (symbol from plugin) (header_skip)
console-tools/lib.a(clear.o)  appletlib.o (symbol from plugin) (clear_main)
console-tools/lib.a(reset.o)  appletlib.o (symbol from plugin) (reset_main)
console-tools/lib.a(resize.o)
                              appletlib.o (symbol from plugin) (resize_main)
coreutils/lib.a(basename.o)   appletlib.o (symbol from plugin) (basename_main)
coreutils/lib.a(cat.o)        appletlib.o (symbol from plugin) (cat_main)
coreutils/lib.a(chgrp.o)      appletlib.o (symbol from plugin) (chgrp_main)
coreutils/lib.a(chmod.o)      appletlib.o (symbol from plugin) (chmod_main)
coreutils/lib.a(chown.o)      appletlib.o (symbol from plugin) (chown_main)
coreutils/lib.a(chroot.o)     appletlib.o (symbol from plugin) (chroot_main)
coreutils/lib.a(cp.o)         appletlib.o (symbol from plugin) (cp_main)
coreutils/lib.a(cut.o)        appletlib.o (symbol from plugin) (cut_main)
coreutils/lib.a(date.o)       appletlib.o (symbol from plugin) (date_main)
coreutils/lib.a(dd.o)         appletlib.o (symbol from plugin) (dd_main)
coreutils/lib.a(df.o)         appletlib.o (symbol from plugin) (df_main)
coreutils/lib.a(dirname.o)    appletlib.o (symbol from plugin) (dirname_main)
coreutils/lib.a(du.o)         appletlib.o (symbol from plugin) (du_main)
coreutils/lib.a(echo.o)       appletlib.o (symbol from plugin) (echo_main)
coreutils/lib.a(env.o)        appletlib.o (symbol from plugin) (env_main)
coreutils/lib.a(expr.o)       appletlib.o (symbol from plugin) (expr_main)
coreutils/lib.a(false.o)      appletlib.o (symbol from plugin) (false_main)
coreutils/lib.a(head.o)       appletlib.o (symbol from plugin) (head_main)
coreutils/lib.a(id.o)         appletlib.o (symbol from plugin) (id_main)
coreutils/lib.a(ln.o)         appletlib.o (symbol from plugin) (ln_main)
coreutils/lib.a(ls.o)         appletlib.o (symbol from plugin) (ls_main)
coreutils/lib.a(md5_sha1_sum.o)
                              appletlib.o (symbol from plugin) (md5_sha1_sum_main)
coreutils/lib.a(mkdir.o)      appletlib.o (symbol from plugin) (mkdir_main)
coreutils/lib.a(mkfifo.o)     appletlib.o (symbol from plugin) (mkfifo_main)
coreutils/lib.a(mknod.o)      appletlib.o (symbol from plugin) (mknod_main)
coreutils/lib.a(mktemp.o)     appletlib.o (symbol from plugin) (mktemp_main)
coreutils/lib.a(mv.o)         appletlib.o (symbol from plugin) (mv_main)
coreutils/lib.a(nice.o)       appletlib.o (symbol from plugin) (nice_main)
coreutils/lib.a(printf.o)     appletlib.o (symbol from plugin) (printf_main)
coreutils/lib.a(pwd.o)        appletlib.o (symbol from plugin) (pwd_main)
coreutils/lib.a(readlink.o)   appletlib.o (symbol from plugin) (readlink_main)
coreutils/lib.a(rm.o)         appletlib.o (symbol from plugin) (rm_main)
coreutils/lib.a(rmdir.o)      appletlib.o (symbol from plugin) (rmdir_main)
coreutils/lib.a(seq.o)        appletlib.o (symbol from plugin) (seq_main)
coreutils/lib.a(sleep.o)      appletlib.o (symbol from plugin) (sleep_main)
coreutils/lib.a(sort.o)       appletlib.o (symbol from plugin) (sort_main)
coreutils/lib.a(sync.o)       appletlib.o (symbol from plugin) (sync_main)
coreutils/lib.a(tail.o)       appletlib.o (symbol from plugin) (tail_main)
coreutils/lib.a(tee.o)        appletlib.o (symbol from plugin) (tee_main)
coreutils/lib.a(test.o)       appletlib.o (symbol from plugin) (test_main)
coreutils/lib.a(test_ptr_hack.o)
                              test.o (symbol from plugin) (test_ptr_to_statics)
coreutils/lib.a(touch.o)      appletlib.o (symbol from plugin) (touch_main)
coreutils/lib.a(tr.o)         appletlib.o (symbol from plugin) (tr_main)
coreutils/lib.a(true.o)       appletlib.o (symbol from plugin) (true_main)
coreutils/lib.a(uname.o)      appletlib.o (symbol from plugin) (uname_main)
coreutils/lib.a(uniq.o)       appletlib.o (symbol from plugin) (uniq_main)
coreutils/lib.a(wc.o)         appletlib.o (symbol from plugin) (wc_main)
coreutils/lib.a(yes.o)        appletlib.o (symbol from plugin) (yes_main)
coreutils/libcoreutils/lib.a(cp_mv_stat.o)
                              cp.o (symbol from plugin) (cp_mv_stat2)
coreutils/libcoreutils/lib.a(getopt_mk_fifo_nod.o)
                              mkfifo.o (symbol from plugin) (getopt_mk_fifo_nod)
debianutils/lib.a(start_stop_daemon.o)
                              appletlib.o (symbol from plugin) (start_stop_daemon_main)
debianutils/lib.a(which.o)    appletlib.o (symbol from plugin) (which_main)
editors/lib.a(awk.o)          appletlib.o (symbol from plugin) (awk_main)
editors/lib.a(cmp.o)          appletlib.o (symbol from plugin) (cmp_main)
editors/lib.a(sed.o)          appletlib.o (symbol from plugin) (sed_main)
editors/lib.a(vi.o)           appletlib.o (symbol from plugin) (vi_main)
findutils/lib.a(find.o)       appletlib.o (symbol from plugin) (find_main)
findutils/lib.a(grep.o)       appletlib.o (symbol from plugin) (grep_main)
findutils/lib.a(xargs.o)      appletlib.o (symbol from plugin) (xargs_main)
init/lib.a(halt.o)            appletlib.o (symbol from plugin) (halt_main)
libbb/lib.a(ask_confirmation.o)
                              xargs.o (symbol from plugin) (bb_ask_y_confirmation_FILE)
libbb/lib.a(auto_string.o)    interface.o (symbol from plugin) (auto_string)
libbb/lib.a(bb_askpass.o)     passwd.o (symbol from plugin) (bb_ask_noecho_stdin)
libbb/lib.a(bb_cat.o)         crontab.o (symbol from plugin) (bb_cat)
libbb/lib.a(bb_do_delay.o)    login.o (symbol from plugin) (pause_after_failed_login)
libbb/lib.a(bb_getgroups.o)   test.o (symbol from plugin) (bb_getgroups)
libbb/lib.a(bb_getsockname.o)
                              iplink.o (symbol from plugin) (bb_getsockname)
libbb/lib.a(bb_pwd.o)         passwd.o (symbol from plugin) (xgetpwnam)
libbb/lib.a(change_identity.o)
                              login.o (symbol from plugin) (change_identity)
libbb/lib.a(chomp.o)          netstat.o (symbol from plugin) (chomp)
libbb/lib.a(common_bufsiz.o)  login.o (symbol from plugin) (bb_common_bufsiz1)
libbb/lib.a(concat_subpath_file.o)
                              sysctl.o (symbol from plugin) (concat_subpath_file)
libbb/lib.a(copy_file.o)      cp.o (symbol from plugin) (copy_file)
libbb/lib.a(correct_password.o)
                              login.o (symbol from plugin) (ask_and_check_password)
libbb/lib.a(crc32.o)          decompress_gunzip.o (symbol from plugin) (crc32_new_table_le)
libbb/lib.a(dump.o)           hexdump.o (symbol from plugin) (alloc_dumper)
libbb/lib.a(duration.o)       ping.o (symbol from plugin) (parse_duration_str)
libbb/lib.a(endofname.o)      ash.o (symbol from plugin) (endofname)
libbb/lib.a(fclose_nonstdin.o)
                              strings.o (symbol from plugin) (fclose_if_not_stdin)
libbb/lib.a(fflush_stdout_and_exit.o)
                              strings.o (symbol from plugin) (fflush_stdout_and_exit)
libbb/lib.a(fgets_str.o)      netstat.o (symbol from plugin) (xmalloc_fgets_str)
libbb/lib.a(find_mount_point.o)
                              mount.o (symbol from plugin) (find_mount_point)
libbb/lib.a(find_pid_by_name.o)
                              kill.o (symbol from plugin) (find_pid_by_name)
libbb/lib.a(get_line_from_file.o)
                              sed.o (symbol from plugin) (bb_get_chunk_from_file)
libbb/lib.a(get_shell_name.o)
                              crond.o (symbol from plugin) (get_shell_name)
libbb/lib.a(get_volsize.o)    mkswap.o (symbol from plugin) (get_volume_size_in_bytes)
libbb/lib.a(getopt_allopts.o)
                              ps.o (symbol from plugin) (make_all_argv_opts)
libbb/lib.a(hash_md5_sha.o)   ntpd.o (symbol from plugin) (md5_begin)
libbb/lib.a(human_readable.o)
                              free.o (symbol from plugin) (make_human_readable_str)
libbb/lib.a(in_ether.o)       ifconfig.o (symbol from plugin) (in_ether)
libbb/lib.a(inet_cksum.o)     ping.o (symbol from plugin) (inet_cksum)
libbb/lib.a(inet_common.o)    interface.o (symbol from plugin) (INET_resolve)
libbb/lib.a(inode_hash.o)     du.o (symbol from plugin) (is_in_ino_dev_hashtable)
libbb/lib.a(isdirectory.o)    ln.o (symbol from plugin) (is_directory)
libbb/lib.a(iterate_on_dir.o)
                              switch_root.o (symbol from plugin) (iterate_on_dir)
libbb/lib.a(lineedit.o)       ash.o (symbol from plugin) (new_line_input_t)
libbb/lib.a(lineedit_ptr_hack.o)
                              lineedit.o (symbol from plugin) (lineedit_ptr_to_statics)
libbb/lib.a(login.o)          login.o (symbol from plugin) (print_login_prompt)
libbb/lib.a(loop.o)           mount.o (symbol from plugin) (del_loop)
libbb/lib.a(make_directory.o)
                              data_extract_all.o (symbol from plugin) (bb_make_directory)
libbb/lib.a(match_fstype.o)   mount.o (symbol from plugin) (fstype_matches)
libbb/lib.a(mode_string.o)    header_verbose_list.o (symbol from plugin) (bb_mode_string)
libbb/lib.a(nuke_str.o)       passwd.o (symbol from plugin) (nuke_str)
libbb/lib.a(obscure.o)        passwd.o (symbol from plugin) (obscure)
libbb/lib.a(parse_config.o)   rt_names.o (symbol from plugin) (config_open2)
libbb/lib.a(parse_mode.o)     ash.o (symbol from plugin) (bb_parse_mode)
libbb/lib.a(perror_nomsg_and_die.o)
                              flock.o (symbol from plugin) (bb_perror_nomsg_and_die)
libbb/lib.a(pidfile.o)        dhcpc.o (symbol from plugin) (write_pidfile)
libbb/lib.a(print_flags.o)    ipaddress.o (symbol from plugin) (print_flags_separated)
libbb/lib.a(printable.o)      netstat.o (symbol from plugin) (fputc_printable)
libbb/lib.a(printable_string.o)
                              ls.o (symbol from plugin) (printable_string2)
libbb/lib.a(process_escape_sequence.o)
                              ash.o (symbol from plugin) (bb_process_escape_sequence)
libbb/lib.a(procps.o)         top.o (symbol from plugin) (clear_username_cache)
libbb/lib.a(pw_encrypt.o)     passwd.o (symbol from plugin) (crypt_make_pw_salt)
libbb/lib.a(read_key.o)       lineedit.o (symbol from plugin) (read_key)
libbb/lib.a(read_printf.o)    ash.o (symbol from plugin) (nonblock_immune_read)
libbb/lib.a(recursive_action.o)
                              netstat.o (symbol from plugin) (recursive_action)
libbb/lib.a(remove_file.o)    mv.o (symbol from plugin) (remove_file)
libbb/lib.a(replace.o)        find.o (symbol from plugin) (count_strstr)
libbb/lib.a(rtc.o)            hwclock.o (symbol from plugin) (rtc_adjtime_is_utc)
libbb/lib.a(run_shell.o)      login.o (symbol from plugin) (exec_login_shell)
libbb/lib.a(safe_gethostname.o)
                              nslookup.o (symbol from plugin) (safe_gethostname)
libbb/lib.a(safe_poll.o)      less.o (symbol from plugin) (safe_poll)
libbb/lib.a(setup_environment.o)
                              login.o (symbol from plugin) (setup_environment)
libbb/lib.a(simplify_path.o)  mount.o (symbol from plugin) (bb_simplify_path)
libbb/lib.a(single_argv.o)    dirname.o (symbol from plugin) (single_argv)
libbb/lib.a(skip_whitespace.o)
                              interface.o (symbol from plugin) (skip_whitespace)
libbb/lib.a(str_tolower.o)    iplink.o (symbol from plugin) (str_tolower)
libbb/lib.a(sysconf.o)        route.o (symbol from plugin) (bb_clk_tck)
libbb/lib.a(trim.o)           common.o (symbol from plugin) (trim)
libbb/lib.a(u_signal_names.o)
                              kill.o (symbol from plugin) (get_signum)
libbb/lib.a(udp_io.o)         ntpd.o (symbol from plugin) (socket_want_pktinfo)
libbb/lib.a(update_passwd.o)  passwd.o (symbol from plugin) (update_passwd)
libbb/lib.a(wfopen.o)         interface.o (symbol from plugin) (fopen_or_warn)
libbb/lib.a(wfopen_input.o)   strings.o (symbol from plugin) (fopen_or_warn_stdin)
libbb/lib.a(xconnect.o)       ntpd.o (symbol from plugin) (setsockopt_int)
libbb/lib.a(xgetcwd.o)        pwd.o (symbol from plugin) (xrealloc_getcwd_or_warn)
libbb/lib.a(xreadlink.o)      netstat.o (symbol from plugin) (xmalloc_readlink)
libbb/lib.a(xrealloc_vector.o)
                              less.o (symbol from plugin) (xrealloc_vector_helper)
libbb/lib.a(xregcomp.o)       pgrep.o (symbol from plugin) (xregcomp)
libbb/lib.a(bb_bswap_64.o)    hash_md5_sha.o (symbol from plugin) (bb_bswap_64)
libbb/lib.a(bb_qsort.o)       lineedit.o (symbol from plugin) (qsort_string_vector)
libbb/lib.a(perror_nomsg.o)   update_passwd.o (symbol from plugin) (bb_perror_nomsg)
libpwdgrp/lib.a(uidgid_get.o)
                              chown.o (symbol from plugin) (parse_chown_usergroup_or_die)

Discarded input sections

 .data          0x00000000        0x0 /mnt/md0/miranda/openwrt/staging_dir/toolchain-mips_24kc_gcc-12.3.0_musl/lib/gcc/mips-openwrt-linux-musl/12.3.0/../../../../mips-openwrt-linux-musl/lib/crt1.o
 .bss           0x00000000        0x0 /mnt/md0/miranda/openwrt/staging_dir/toolchain-mips_24kc_gcc-12.3.0_musl/lib/gcc/mips-openwrt-linux-musl/12.3.0/../../../../mips-openwrt-linux-musl/lib/crt1.o
 .reginfo       0x00000000       0x18 /mnt/md0/miranda/openwrt/staging_dir/toolchain-mips_24kc_gcc-12.3.0_musl/lib/gcc/mips-openwrt-linux-musl/12.3.0/../../../../mips-openwrt-linux-musl/lib/crt1.o
 .pdr           0x00000000       0x20 /mnt/md0/miranda/openwrt/staging_dir/toolchain-mips_24kc_gcc-12.3.0_musl/lib/gcc/mips-openwrt-linux-musl/12.3.0/../../../../mips-openwrt-linux-musl/lib/crt1.o
 .note.GNU-stack
                0x00000000        0x0 /mnt/md0/miranda/openwrt/staging_dir/toolchain-mips_24kc_gcc-12.3.0_musl/lib/gcc/mips-openwrt-linux-musl/12.3.0/../../../../mips-openwrt-linux-musl/lib/crt1.o
 .text          0x00000000        0x0 /mnt/md0/miranda/openwrt/staging_dir/toolchain-mips_24kc_gcc-12.3.0_musl/lib/gcc/mips-openwrt-linux-musl/12.3.0/../../../../mips-openwrt-linux-musl/lib/crti.o
 .data          0x00000000        0x0 /mnt/md0/miranda/openwrt/staging_dir/toolchain-mips_24kc_gcc-12.3.0_musl/lib/gcc/mips-openwrt-linux-musl/12.3.0/../../../../mips-openwrt-linux-musl/lib/crti.o
 .bss           0x00000000        0x0 /mnt/md0/miranda/openwrt/staging_dir/toolchain-mips_24kc_gcc-12.3.0_musl/lib/gcc/mips-openwrt-linux-musl/12.3.0/../../../../mips-openwrt-linux-musl/lib/crti.o
 .reginfo       0x00000000       0x18 /mnt/md0/miranda/openwrt/staging_dir/toolchain-mips_24kc_gcc-12.3.0_musl/lib/gcc/mips-openwrt-linux-musl/12.3.0/../../../../mips-openwrt-linux-musl/lib/crti.o
 .MIPS.abiflags
                0x00000000       0x18 /mnt/md0/miranda/openwrt/staging_dir/toolchain-mips_24kc_gcc-12.3.0_musl/lib/gcc/mips-openwrt-linux-musl/12.3.0/../../../../mips-openwrt-linux-musl/lib/crti.o
 .note.GNU-stack
                0x00000000        0x0 /mnt/md0/miranda/openwrt/staging_dir/toolchain-mips_24kc_gcc-12.3.0_musl/lib/gcc/mips-openwrt-linux-musl/12.3.0/../../../../mips-openwrt-linux-musl/lib/crti.o
 .data          0x00000000        0x0 /mnt/md0/miranda/openwrt/staging_dir/toolchain-mips_24kc_gcc-12.3.0_musl/lib/gcc/mips-openwrt-linux-musl/12.3.0/crtbegin.o
 .reginfo       0x00000000       0x18 /mnt/md0/miranda/openwrt/staging_dir/toolchain-mips_24kc_gcc-12.3.0_musl/lib/gcc/mips-openwrt-linux-musl/12.3.0/crtbegin.o
 .MIPS.abiflags
                0x00000000       0x18 /mnt/md0/miranda/openwrt/staging_dir/toolchain-mips_24kc_gcc-12.3.0_musl/lib/gcc/mips-openwrt-linux-musl/12.3.0/crtbegin.o
 .sdata         0x00000000        0x4 /mnt/md0/miranda/openwrt/staging_dir/toolchain-mips_24kc_gcc-12.3.0_musl/lib/gcc/mips-openwrt-linux-musl/12.3.0/crtbegin.o
 .note.GNU-stack
                0x00000000        0x0 /mnt/md0/miranda/openwrt/staging_dir/toolchain-mips_24kc_gcc-12.3.0_musl/lib/gcc/mips-openwrt-linux-musl/12.3.0/crtbegin.o
 .text          0x00000000        0x0 /mnt/md0/miranda/openwrt/tmp/cca1aXTG.ltrans0.ltrans.o
 .data          0x00000000        0x0 /mnt/md0/miranda/openwrt/tmp/cca1aXTG.ltrans0.ltrans.o
 .bss           0x00000000        0x0 /mnt/md0/miranda/openwrt/tmp/cca1aXTG.ltrans0.ltrans.o
 .reginfo       0x00000000       0x18 /mnt/md0/miranda/openwrt/tmp/cca1aXTG.ltrans0.ltrans.o
 .MIPS.abiflags
                0x00000000       0x18 /mnt/md0/miranda/openwrt/tmp/cca1aXTG.ltrans0.ltrans.o
 .pdr           0x00000000     0x1ae0 /mnt/md0/miranda/openwrt/tmp/cca1aXTG.ltrans0.ltrans.o
 .note.GNU-stack
                0x00000000        0x0 /mnt/md0/miranda/openwrt/tmp/cca1aXTG.ltrans0.ltrans.o
 .text          0x00000000        0x0 /mnt/md0/miranda/openwrt/tmp/cca1aXTG.ltrans1.ltrans.o
 .data          0x00000000        0x0 /mnt/md0/miranda/openwrt/tmp/cca1aXTG.ltrans1.ltrans.o
 .bss           0x00000000        0x0 /mnt/md0/miranda/openwrt/tmp/cca1aXTG.ltrans1.ltrans.o
 .reginfo       0x00000000       0x18 /mnt/md0/miranda/openwrt/tmp/cca1aXTG.ltrans1.ltrans.o
 .MIPS.abiflags
                0x00000000       0x18 /mnt/md0/miranda/openwrt/tmp/cca1aXTG.ltrans1.ltrans.o
 .pdr           0x00000000      0xa60 /mnt/md0/miranda/openwrt/tmp/cca1aXTG.ltrans1.ltrans.o
 .note.GNU-stack
                0x00000000        0x0 /mnt/md0/miranda/openwrt/tmp/cca1aXTG.ltrans1.ltrans.o
 .text          0x00000000        0x0 /mnt/md0/miranda/openwrt/tmp/cca1aXTG.ltrans2.ltrans.o
 .data          0x00000000        0x0 /mnt/md0/miranda/openwrt/tmp/cca1aXTG.ltrans2.ltrans.o
 .bss           0x00000000        0x0 /mnt/md0/miranda/openwrt/tmp/cca1aXTG.ltrans2.ltrans.o
 .reginfo       0x00000000       0x18 /mnt/md0/miranda/openwrt/tmp/cca1aXTG.ltrans2.ltrans.o
 .MIPS.abiflags
                0x00000000       0x18 /mnt/md0/miranda/openwrt/tmp/cca1aXTG.ltrans2.ltrans.o
 .pdr           0x00000000     0x1620 /mnt/md0/miranda/openwrt/tmp/cca1aXTG.ltrans2.ltrans.o
 .note.GNU-stack
                0x00000000        0x0 /mnt/md0/miranda/openwrt/tmp/cca1aXTG.ltrans2.ltrans.o
 .text          0x00000000        0x0 /mnt/md0/miranda/openwrt/tmp/cca1aXTG.ltrans3.ltrans.o
 .data          0x00000000        0x0 /mnt/md0/miranda/openwrt/tmp/cca1aXTG.ltrans3.ltrans.o
 .bss           0x00000000        0x0 /mnt/md0/miranda/openwrt/tmp/cca1aXTG.ltrans3.ltrans.o
 .reginfo       0x00000000       0x18 /mnt/md0/miranda/openwrt/tmp/cca1aXTG.ltrans3.ltrans.o
 .MIPS.abiflags
                0x00000000       0x18 /mnt/md0/miranda/openwrt/tmp/cca1aXTG.ltrans3.ltrans.o
 .pdr           0x00000000      0xc40 /mnt/md0/miranda/openwrt/tmp/cca1aXTG.ltrans3.ltrans.o
 .note.GNU-stack
                0x00000000        0x0 /mnt/md0/miranda/openwrt/tmp/cca1aXTG.ltrans3.ltrans.o
 .text          0x00000000        0x0 /mnt/md0/miranda/openwrt/tmp/cca1aXTG.ltrans4.ltrans.o
 .data          0x00000000        0x0 /mnt/md0/miranda/openwrt/tmp/cca1aXTG.ltrans4.ltrans.o
 .bss           0x00000000        0x0 /mnt/md0/miranda/openwrt/tmp/cca1aXTG.ltrans4.ltrans.o
 .reginfo       0x00000000       0x18 /mnt/md0/miranda/openwrt/tmp/cca1aXTG.ltrans4.ltrans.o
 .MIPS.abiflags
                0x00000000       0x18 /mnt/md0/miranda/openwrt/tmp/cca1aXTG.ltrans4.ltrans.o
 .pdr           0x00000000      0xe00 /mnt/md0/miranda/openwrt/tmp/cca1aXTG.ltrans4.ltrans.o
 .note.GNU-stack
                0x00000000        0x0 /mnt/md0/miranda/openwrt/tmp/cca1aXTG.ltrans4.ltrans.o
 .text          0x00000000        0x0 /mnt/md0/miranda/openwrt/tmp/cca1aXTG.ltrans5.ltrans.o
 .data          0x00000000        0x0 /mnt/md0/miranda/openwrt/tmp/cca1aXTG.ltrans5.ltrans.o
 .bss           0x00000000        0x0 /mnt/md0/miranda/openwrt/tmp/cca1aXTG.ltrans5.ltrans.o
 .reginfo       0x00000000       0x18 /mnt/md0/miranda/openwrt/tmp/cca1aXTG.ltrans5.ltrans.o
 .MIPS.abiflags
                0x00000000       0x18 /mnt/md0/miranda/openwrt/tmp/cca1aXTG.ltrans5.ltrans.o
 .pdr           0x00000000      0xf60 /mnt/md0/miranda/openwrt/tmp/cca1aXTG.ltrans5.ltrans.o
 .note.GNU-stack
                0x00000000        0x0 /mnt/md0/miranda/openwrt/tmp/cca1aXTG.ltrans5.ltrans.o
 .text          0x00000000        0x0 /mnt/md0/miranda/openwrt/tmp/cca1aXTG.ltrans6.ltrans.o
 .data          0x00000000        0x0 /mnt/md0/miranda/openwrt/tmp/cca1aXTG.ltrans6.ltrans.o
 .bss           0x00000000        0x0 /mnt/md0/miranda/openwrt/tmp/cca1aXTG.ltrans6.ltrans.o
 .reginfo       0x00000000       0x18 /mnt/md0/miranda/openwrt/tmp/cca1aXTG.ltrans6.ltrans.o
 .MIPS.abiflags
                0x00000000       0x18 /mnt/md0/miranda/openwrt/tmp/cca1aXTG.ltrans6.ltrans.o
 .pdr           0x00000000      0xe00 /mnt/md0/miranda/openwrt/tmp/cca1aXTG.ltrans6.ltrans.o
 .note.GNU-stack
                0x00000000        0x0 /mnt/md0/miranda/openwrt/tmp/cca1aXTG.ltrans6.ltrans.o
 .text          0x00000000        0x0 /mnt/md0/miranda/openwrt/tmp/cca1aXTG.ltrans7.ltrans.o
 .data          0x00000000        0x0 /mnt/md0/miranda/openwrt/tmp/cca1aXTG.ltrans7.ltrans.o
 .bss           0x00000000        0x0 /mnt/md0/miranda/openwrt/tmp/cca1aXTG.ltrans7.ltrans.o
 .reginfo       0x00000000       0x18 /mnt/md0/miranda/openwrt/tmp/cca1aXTG.ltrans7.ltrans.o
 .MIPS.abiflags
                0x00000000       0x18 /mnt/md0/miranda/openwrt/tmp/cca1aXTG.ltrans7.ltrans.o
 .pdr           0x00000000     0x1780 /mnt/md0/miranda/openwrt/tmp/cca1aXTG.ltrans7.ltrans.o
 .note.GNU-stack
                0x00000000        0x0 /mnt/md0/miranda/openwrt/tmp/cca1aXTG.ltrans7.ltrans.o
 .text          0x00000000        0x0 /mnt/md0/miranda/openwrt/staging_dir/toolchain-mips_24kc_gcc-12.3.0_musl/lib/gcc/mips-openwrt-linux-musl/12.3.0/crtend.o
 .data          0x00000000        0x0 /mnt/md0/miranda/openwrt/staging_dir/toolchain-mips_24kc_gcc-12.3.0_musl/lib/gcc/mips-openwrt-linux-musl/12.3.0/crtend.o
 .bss           0x00000000        0x0 /mnt/md0/miranda/openwrt/staging_dir/toolchain-mips_24kc_gcc-12.3.0_musl/lib/gcc/mips-openwrt-linux-musl/12.3.0/crtend.o
 .reginfo       0x00000000       0x18 /mnt/md0/miranda/openwrt/staging_dir/toolchain-mips_24kc_gcc-12.3.0_musl/lib/gcc/mips-openwrt-linux-musl/12.3.0/crtend.o
 .MIPS.abiflags
                0x00000000       0x18 /mnt/md0/miranda/openwrt/staging_dir/toolchain-mips_24kc_gcc-12.3.0_musl/lib/gcc/mips-openwrt-linux-musl/12.3.0/crtend.o
 .note.GNU-stack
                0x00000000        0x0 /mnt/md0/miranda/openwrt/staging_dir/toolchain-mips_24kc_gcc-12.3.0_musl/lib/gcc/mips-openwrt-linux-musl/12.3.0/crtend.o
 .text          0x00000000        0x0 /mnt/md0/miranda/openwrt/staging_dir/toolchain-mips_24kc_gcc-12.3.0_musl/lib/gcc/mips-openwrt-linux-musl/12.3.0/../../../../mips-openwrt-linux-musl/lib/crtn.o
 .data          0x00000000        0x0 /mnt/md0/miranda/openwrt/staging_dir/toolchain-mips_24kc_gcc-12.3.0_musl/lib/gcc/mips-openwrt-linux-musl/12.3.0/../../../../mips-openwrt-linux-musl/lib/crtn.o
 .bss           0x00000000        0x0 /mnt/md0/miranda/openwrt/staging_dir/toolchain-mips_24kc_gcc-12.3.0_musl/lib/gcc/mips-openwrt-linux-musl/12.3.0/../../../../mips-openwrt-linux-musl/lib/crtn.o
 .reginfo       0x00000000       0x18 /mnt/md0/miranda/openwrt/staging_dir/toolchain-mips_24kc_gcc-12.3.0_musl/lib/gcc/mips-openwrt-linux-musl/12.3.0/../../../../mips-openwrt-linux-musl/lib/crtn.o
 .MIPS.abiflags
                0x00000000       0x18 /mnt/md0/miranda/openwrt/staging_dir/toolchain-mips_24kc_gcc-12.3.0_musl/lib/gcc/mips-openwrt-linux-musl/12.3.0/../../../../mips-openwrt-linux-musl/lib/crtn.o
 .note.GNU-stack
                0x00000000        0x0 /mnt/md0/miranda/openwrt/staging_dir/toolchain-mips_24kc_gcc-12.3.0_musl/lib/gcc/mips-openwrt-linux-musl/12.3.0/../../../../mips-openwrt-linux-musl/lib/crtn.o

Memory Configuration

Name             Origin             Length             Attributes
*default*        0x00000000         0xffffffff

Linker script and memory map

LOAD /mnt/md0/miranda/openwrt/staging_dir/toolchain-mips_24kc_gcc-12.3.0_musl/lib/gcc/mips-openwrt-linux-musl/12.3.0/../../../../mips-openwrt-linux-musl/lib/crt1.o
LOAD /mnt/md0/miranda/openwrt/staging_dir/toolchain-mips_24kc_gcc-12.3.0_musl/lib/gcc/mips-openwrt-linux-musl/12.3.0/../../../../mips-openwrt-linux-musl/lib/crti.o
LOAD /mnt/md0/miranda/openwrt/staging_dir/toolchain-mips_24kc_gcc-12.3.0_musl/lib/gcc/mips-openwrt-linux-musl/12.3.0/crtbegin.o
START GROUP
LOAD applets/built-in.o
LOAD /mnt/md0/miranda/openwrt/tmp/cca1aXTG.ltrans0.ltrans.o
LOAD /mnt/md0/miranda/openwrt/tmp/cca1aXTG.ltrans1.ltrans.o
LOAD /mnt/md0/miranda/openwrt/tmp/cca1aXTG.ltrans2.ltrans.o
LOAD /mnt/md0/miranda/openwrt/tmp/cca1aXTG.ltrans3.ltrans.o
LOAD /mnt/md0/miranda/openwrt/tmp/cca1aXTG.ltrans4.ltrans.o
LOAD /mnt/md0/miranda/openwrt/tmp/cca1aXTG.ltrans5.ltrans.o
LOAD /mnt/md0/miranda/openwrt/tmp/cca1aXTG.ltrans6.ltrans.o
LOAD /mnt/md0/miranda/openwrt/tmp/cca1aXTG.ltrans7.ltrans.o
LOAD archival/lib.a
LOAD archival/libarchive/lib.a
LOAD console-tools/lib.a
LOAD coreutils/lib.a
LOAD coreutils/libcoreutils/lib.a
LOAD debianutils/lib.a
LOAD klibc-utils/lib.a
LOAD e2fsprogs/lib.a
LOAD editors/lib.a
LOAD findutils/lib.a
LOAD init/lib.a
LOAD libbb/lib.a
LOAD libpwdgrp/lib.a
LOAD loginutils/lib.a
LOAD mailutils/lib.a
LOAD miscutils/lib.a
LOAD modutils/lib.a
LOAD networking/lib.a
LOAD networking/libiproute/lib.a
LOAD networking/udhcp/lib.a
LOAD printutils/lib.a
LOAD procps/lib.a
LOAD runit/lib.a
LOAD selinux/lib.a
LOAD shell/lib.a
LOAD sysklogd/lib.a
LOAD util-linux/lib.a
LOAD util-linux/volume_id/lib.a
LOAD archival/built-in.o
LOAD archival/libarchive/built-in.o
LOAD console-tools/built-in.o
LOAD coreutils/built-in.o
LOAD coreutils/libcoreutils/built-in.o
LOAD debianutils/built-in.o
LOAD klibc-utils/built-in.o
LOAD e2fsprogs/built-in.o
LOAD editors/built-in.o
LOAD findutils/built-in.o
LOAD init/built-in.o
LOAD libbb/built-in.o
LOAD libpwdgrp/built-in.o
LOAD loginutils/built-in.o
LOAD mailutils/built-in.o
LOAD miscutils/built-in.o
LOAD modutils/built-in.o
LOAD networking/built-in.o
LOAD networking/libiproute/built-in.o
LOAD networking/udhcp/built-in.o
LOAD printutils/built-in.o
LOAD procps/built-in.o
LOAD runit/built-in.o
LOAD selinux/built-in.o
LOAD shell/built-in.o
LOAD sysklogd/built-in.o
LOAD util-linux/built-in.o
LOAD util-linux/volume_id/built-in.o
END GROUP
LOAD /mnt/md0/miranda/openwrt/staging_dir/toolchain-mips_24kc_gcc-12.3.0_musl/lib/libssp_nonshared.a
LOAD /mnt/md0/miranda/openwrt/staging_dir/toolchain-mips_24kc_gcc-12.3.0_musl/lib/libgcc_s.so
START GROUP
LOAD /mnt/md0/miranda/openwrt/staging_dir/toolchain-mips_24kc_gcc-12.3.0_musl/lib/libgcc_s.so.1
LOAD /mnt/md0/miranda/openwrt/staging_dir/toolchain-mips_24kc_gcc-12.3.0_musl/lib/gcc/mips-openwrt-linux-musl/12.3.0/libgcc.a
END GROUP
LOAD /mnt/md0/miranda/openwrt/staging_dir/toolchain-mips_24kc_gcc-12.3.0_musl/lib/libc.so
LOAD /mnt/md0/miranda/openwrt/staging_dir/toolchain-mips_24kc_gcc-12.3.0_musl/lib/libgcc_s.so
START GROUP
LOAD /mnt/md0/miranda/openwrt/staging_dir/toolchain-mips_24kc_gcc-12.3.0_musl/lib/libgcc_s.so.1
LOAD /mnt/md0/miranda/openwrt/staging_dir/toolchain-mips_24kc_gcc-12.3.0_musl/lib/gcc/mips-openwrt-linux-musl/12.3.0/libgcc.a
END GROUP
LOAD /mnt/md0/miranda/openwrt/staging_dir/toolchain-mips_24kc_gcc-12.3.0_musl/lib/gcc/mips-openwrt-linux-musl/12.3.0/crtend.o
LOAD /mnt/md0/miranda/openwrt/staging_dir/toolchain-mips_24kc_gcc-12.3.0_musl/lib/gcc/mips-openwrt-linux-musl/12.3.0/../../../../mips-openwrt-linux-musl/lib/crtn.o
                [!provide]                        PROVIDE (__executable_start = SEGMENT_START ("text-segment", 0x400000))
                0x00400154                        . = (SEGMENT_START ("text-segment", 0x400000) + SIZEOF_HEADERS)

.interp         0x00400154       0x1a
 *(SORT_BY_ALIGNMENT(.interp))
 .interp        0x00400154       0x1a /mnt/md0/miranda/openwrt/staging_dir/toolchain-mips_24kc_gcc-12.3.0_musl/lib/gcc/mips-openwrt-linux-musl/12.3.0/../../../../mips-openwrt-linux-musl/lib/crt1.o

.MIPS.abiflags  0x00400170       0x18
 *(SORT_BY_ALIGNMENT(.MIPS.abiflags))
 .MIPS.abiflags
                0x00400170       0x18 /mnt/md0/miranda/openwrt/staging_dir/toolchain-mips_24kc_gcc-12.3.0_musl/lib/gcc/mips-openwrt-linux-musl/12.3.0/../../../../mips-openwrt-linux-musl/lib/crt1.o

.reginfo
 *(SORT_BY_ALIGNMENT(.reginfo))

.MIPS.xhash
 *(SORT_BY_ALIGNMENT(.MIPS.xhash))

.note.gnu.build-id
 *(SORT_BY_ALIGNMENT(.note.gnu.build-id))

.dynamic        0x00400188      0x150
 *(SORT_BY_ALIGNMENT(.dynamic))
 .dynamic       0x00400188      0x150 /mnt/md0/miranda/openwrt/staging_dir/toolchain-mips_24kc_gcc-12.3.0_musl/lib/gcc/mips-openwrt-linux-musl/12.3.0/../../../../mips-openwrt-linux-musl/lib/crt1.o
                0x00400188                _DYNAMIC

.hash           0x004002d8      0x980
 *(SORT_BY_ALIGNMENT(.hash))
 .hash          0x004002d8      0x980 /mnt/md0/miranda/openwrt/staging_dir/toolchain-mips_24kc_gcc-12.3.0_musl/lib/gcc/mips-openwrt-linux-musl/12.3.0/../../../../mips-openwrt-linux-musl/lib/crt1.o

.gnu.hash
 *(SORT_BY_ALIGNMENT(.gnu.hash))

.dynsym         0x00400c58     0x1570
 *(SORT_BY_ALIGNMENT(.dynsym))
 .dynsym        0x00400c58     0x1570 /mnt/md0/miranda/openwrt/staging_dir/toolchain-mips_24kc_gcc-12.3.0_musl/lib/gcc/mips-openwrt-linux-musl/12.3.0/../../../../mips-openwrt-linux-musl/lib/crt1.o

.dynstr         0x004021c8      0xba2
 *(SORT_BY_ALIGNMENT(.dynstr))
 .dynstr        0x004021c8      0xba2 /mnt/md0/miranda/openwrt/staging_dir/toolchain-mips_24kc_gcc-12.3.0_musl/lib/gcc/mips-openwrt-linux-musl/12.3.0/../../../../mips-openwrt-linux-musl/lib/crt1.o

.gnu.version    0x00402d6a      0x2ae
 *(SORT_BY_ALIGNMENT(.gnu.version))
 .gnu.version   0x00402d6a      0x2ae /mnt/md0/miranda/openwrt/staging_dir/toolchain-mips_24kc_gcc-12.3.0_musl/lib/gcc/mips-openwrt-linux-musl/12.3.0/../../../../mips-openwrt-linux-musl/lib/crt1.o

.gnu.version_d  0x00403018        0x0
 *(SORT_BY_ALIGNMENT(.gnu.version_d))
 .gnu.version_d
                0x00403018        0x0 /mnt/md0/miranda/openwrt/staging_dir/toolchain-mips_24kc_gcc-12.3.0_musl/lib/gcc/mips-openwrt-linux-musl/12.3.0/../../../../mips-openwrt-linux-musl/lib/crt1.o

.gnu.version_r  0x00403018       0x50
 *(SORT_BY_ALIGNMENT(.gnu.version_r))
 .gnu.version_r
                0x00403018       0x50 /mnt/md0/miranda/openwrt/staging_dir/toolchain-mips_24kc_gcc-12.3.0_musl/lib/gcc/mips-openwrt-linux-musl/12.3.0/../../../../mips-openwrt-linux-musl/lib/crt1.o

.rel.dyn        0x00403068       0x40
 *(SORT_BY_ALIGNMENT(.rel.init))
 *(SORT_BY_ALIGNMENT(.rel.text) SORT_BY_ALIGNMENT(.rel.text.*) SORT_BY_ALIGNMENT(.rel.gnu.linkonce.t.*))
 *(SORT_BY_ALIGNMENT(.rel.fini))
 *(SORT_BY_ALIGNMENT(.rel.rodata) SORT_BY_ALIGNMENT(.rel.rodata.*) SORT_BY_ALIGNMENT(.rel.gnu.linkonce.r.*))
 *(SORT_BY_ALIGNMENT(.rel.data.rel.ro) SORT_BY_ALIGNMENT(.rel.data.rel.ro.*) SORT_BY_ALIGNMENT(.rel.gnu.linkonce.d.rel.ro.*))
 .rel.data.rel.ro
                0x00403068        0x0 /mnt/md0/miranda/openwrt/staging_dir/toolchain-mips_24kc_gcc-12.3.0_musl/lib/gcc/mips-openwrt-linux-musl/12.3.0/../../../../mips-openwrt-linux-musl/lib/crt1.o
 *(SORT_BY_ALIGNMENT(.rel.data) SORT_BY_ALIGNMENT(.rel.data.*) SORT_BY_ALIGNMENT(.rel.gnu.linkonce.d.*))
 *(SORT_BY_ALIGNMENT(.rel.tdata) SORT_BY_ALIGNMENT(.rel.tdata.*) SORT_BY_ALIGNMENT(.rel.gnu.linkonce.td.*))
 *(SORT_BY_ALIGNMENT(.rel.tbss) SORT_BY_ALIGNMENT(.rel.tbss.*) SORT_BY_ALIGNMENT(.rel.gnu.linkonce.tb.*))
 *(SORT_BY_ALIGNMENT(.rel.ctors))
 *(SORT_BY_ALIGNMENT(.rel.dtors))
 *(SORT_BY_ALIGNMENT(.rel.got))
 *(SORT_BY_ALIGNMENT(.rel.dyn))
 .rel.dyn       0x00403068       0x40 /mnt/md0/miranda/openwrt/staging_dir/toolchain-mips_24kc_gcc-12.3.0_musl/lib/gcc/mips-openwrt-linux-musl/12.3.0/../../../../mips-openwrt-linux-musl/lib/crt1.o
 *(SORT_BY_ALIGNMENT(.rel.sdata) SORT_BY_ALIGNMENT(.rel.sdata.*) SORT_BY_ALIGNMENT(.rel.gnu.linkonce.s.*))
 *(SORT_BY_ALIGNMENT(.rel.sbss) SORT_BY_ALIGNMENT(.rel.sbss.*) SORT_BY_ALIGNMENT(.rel.gnu.linkonce.sb.*))
 *(SORT_BY_ALIGNMENT(.rel.sdata2) SORT_BY_ALIGNMENT(.rel.sdata2.*) SORT_BY_ALIGNMENT(.rel.gnu.linkonce.s2.*))
 *(SORT_BY_ALIGNMENT(.rel.sbss2) SORT_BY_ALIGNMENT(.rel.sbss2.*) SORT_BY_ALIGNMENT(.rel.gnu.linkonce.sb2.*))
 *(SORT_BY_ALIGNMENT(.rel.bss) SORT_BY_ALIGNMENT(.rel.bss.*) SORT_BY_ALIGNMENT(.rel.gnu.linkonce.b.*))
 .rel.bss       0x004030a8        0x0 /mnt/md0/miranda/openwrt/staging_dir/toolchain-mips_24kc_gcc-12.3.0_musl/lib/gcc/mips-openwrt-linux-musl/12.3.0/../../../../mips-openwrt-linux-musl/lib/crt1.o
                [!provide]                        PROVIDE (__rel_iplt_start = .)
 *(SORT_BY_ALIGNMENT(.rel.iplt))
                [!provide]                        PROVIDE (__rel_iplt_end = .)

.rela.dyn       0x004030a8        0x0
 *(SORT_BY_ALIGNMENT(.rela.init))
 *(SORT_BY_ALIGNMENT(.rela.text) SORT_BY_ALIGNMENT(.rela.text.*) SORT_BY_ALIGNMENT(.rela.gnu.linkonce.t.*))
 *(SORT_BY_ALIGNMENT(.rela.fini))
 *(SORT_BY_ALIGNMENT(.rela.rodata) SORT_BY_ALIGNMENT(.rela.rodata.*) SORT_BY_ALIGNMENT(.rela.gnu.linkonce.r.*))
 *(SORT_BY_ALIGNMENT(.rela.data) SORT_BY_ALIGNMENT(.rela.data.*) SORT_BY_ALIGNMENT(.rela.gnu.linkonce.d.*))
 *(SORT_BY_ALIGNMENT(.rela.tdata) SORT_BY_ALIGNMENT(.rela.tdata.*) SORT_BY_ALIGNMENT(.rela.gnu.linkonce.td.*))
 *(SORT_BY_ALIGNMENT(.rela.tbss) SORT_BY_ALIGNMENT(.rela.tbss.*) SORT_BY_ALIGNMENT(.rela.gnu.linkonce.tb.*))
 *(SORT_BY_ALIGNMENT(.rela.ctors))
 *(SORT_BY_ALIGNMENT(.rela.dtors))
 *(SORT_BY_ALIGNMENT(.rela.got))
 *(SORT_BY_ALIGNMENT(.rela.sdata) SORT_BY_ALIGNMENT(.rela.sdata.*) SORT_BY_ALIGNMENT(.rela.gnu.linkonce.s.*))
 *(SORT_BY_ALIGNMENT(.rela.sbss) SORT_BY_ALIGNMENT(.rela.sbss.*) SORT_BY_ALIGNMENT(.rela.gnu.linkonce.sb.*))
 *(SORT_BY_ALIGNMENT(.rela.sdata2) SORT_BY_ALIGNMENT(.rela.sdata2.*) SORT_BY_ALIGNMENT(.rela.gnu.linkonce.s2.*))
 *(SORT_BY_ALIGNMENT(.rela.sbss2) SORT_BY_ALIGNMENT(.rela.sbss2.*) SORT_BY_ALIGNMENT(.rela.gnu.linkonce.sb2.*))
 *(SORT_BY_ALIGNMENT(.rela.bss) SORT_BY_ALIGNMENT(.rela.bss.*) SORT_BY_ALIGNMENT(.rela.gnu.linkonce.b.*))
                [!provide]                        PROVIDE (__rela_iplt_start = .)
 *(SORT_BY_ALIGNMENT(.rela.iplt))
                [!provide]                        PROVIDE (__rela_iplt_end = .)

.rel.plt        0x004030a8      0xa58
 *(SORT_BY_ALIGNMENT(.rel.plt))
 .rel.plt       0x004030a8      0xa58 /mnt/md0/miranda/openwrt/staging_dir/toolchain-mips_24kc_gcc-12.3.0_musl/lib/gcc/mips-openwrt-linux-musl/12.3.0/../../../../mips-openwrt-linux-musl/lib/crt1.o

.rela.plt
 *(SORT_BY_ALIGNMENT(.rela.plt))

.init           0x00403b00       0x1c
 *(SORT_NONE(.init))
 .init          0x00403b00        0xc /mnt/md0/miranda/openwrt/staging_dir/toolchain-mips_24kc_gcc-12.3.0_musl/lib/gcc/mips-openwrt-linux-musl/12.3.0/../../../../mips-openwrt-linux-musl/lib/crti.o
                0x00403b00                _init
 .init          0x00403b0c       0x10 /mnt/md0/miranda/openwrt/staging_dir/toolchain-mips_24kc_gcc-12.3.0_musl/lib/gcc/mips-openwrt-linux-musl/12.3.0/../../../../mips-openwrt-linux-musl/lib/crtn.o

.text           0x00403b20    0x387d0
                0x00403b20                        _ftext = .
 *(SORT_BY_ALIGNMENT(.text.unlikely) SORT_BY_ALIGNMENT(.text.*_unlikely) SORT_BY_ALIGNMENT(.text.unlikely.*))
 *(SORT_BY_ALIGNMENT(.text.exit) SORT_BY_ALIGNMENT(.text.exit.*))
 *(SORT_BY_ALIGNMENT(.text.startup) SORT_BY_ALIGNMENT(.text.startup.*))
 *(SORT_BY_ALIGNMENT(.text.hot) SORT_BY_ALIGNMENT(.text.hot.*))
 *(SORT_BY_NAME(SORT_BY_ALIGNMENT(.text.sorted.*)))
 *(SORT_BY_ALIGNMENT(.text) SORT_BY_ALIGNMENT(.stub) SORT_BY_ALIGNMENT(.text.*) SORT_BY_ALIGNMENT(.gnu.linkonce.t.*))
 .text          0x00403b20       0x40 /mnt/md0/miranda/openwrt/staging_dir/toolchain-mips_24kc_gcc-12.3.0_musl/lib/gcc/mips-openwrt-linux-musl/12.3.0/../../../../mips-openwrt-linux-musl/lib/crt1.o
                0x00403b20                __start
                0x00403b20                _start
 .text          0x00403b60       0x90 /mnt/md0/miranda/openwrt/staging_dir/toolchain-mips_24kc_gcc-12.3.0_musl/lib/gcc/mips-openwrt-linux-musl/12.3.0/crtbegin.o
 .text.my_SQRT  0x00403bf0       0x88 /mnt/md0/miranda/openwrt/tmp/cca1aXTG.ltrans0.ltrans.o
 .text.bb_full_fd_action.lto_priv.0
                0x00403c78      0x150 /mnt/md0/miranda/openwrt/tmp/cca1aXTG.ltrans0.ltrans.o
                0x00403c79                bb_full_fd_action.lto_priv.0
 .text.passwd_main
                0x00403dc8      0x4e0 /mnt/md0/miranda/openwrt/tmp/cca1aXTG.ltrans0.ltrans.o
 .text.brctl_main
                0x004042a8      0x600 /mnt/md0/miranda/openwrt/tmp/cca1aXTG.ltrans0.ltrans.o
 .text.gettime1900d.lto_priv.0
                0x004048a8       0x68 /mnt/md0/miranda/openwrt/tmp/cca1aXTG.ltrans0.ltrans.o
                0x004048a9                gettime1900d.lto_priv.0
 .text.lfp_to_d.lto_priv.0
                0x00404910       0x50 /mnt/md0/miranda/openwrt/tmp/cca1aXTG.ltrans0.ltrans.o
                0x00404911                lfp_to_d.lto_priv.0
 .text.sfp_to_d.lto_priv.0
                0x00404960       0x58 /mnt/md0/miranda/openwrt/tmp/cca1aXTG.ltrans0.ltrans.o
                0x00404961                sfp_to_d.lto_priv.0
 .text.d_to_lfp.lto_priv.0
                0x004049b8       0x58 /mnt/md0/miranda/openwrt/tmp/cca1aXTG.ltrans0.ltrans.o
                0x004049b9                d_to_lfp.lto_priv.0
 .text.d_to_sfp.lto_priv.0
                0x00404a10       0x58 /mnt/md0/miranda/openwrt/tmp/cca1aXTG.ltrans0.ltrans.o
                0x00404a11                d_to_sfp.lto_priv.0
 .text.filter_datapoints.lto_priv.0
                0x00404a68      0x180 /mnt/md0/miranda/openwrt/tmp/cca1aXTG.ltrans0.ltrans.o
                0x00404a69                filter_datapoints.lto_priv.0
 .text.step_time
                0x00404be8      0x260 /mnt/md0/miranda/openwrt/tmp/cca1aXTG.ltrans0.ltrans.o
 .text.select_and_cluster.lto_priv.0
                0x00404e48      0x5b0 /mnt/md0/miranda/openwrt/tmp/cca1aXTG.ltrans0.ltrans.o
                0x00404e49                select_and_cluster.lto_priv.0
 .text.update_local_clock.lto_priv.0
                0x004053f8      0x398 /mnt/md0/miranda/openwrt/tmp/cca1aXTG.ltrans0.ltrans.o
                0x004053f9                update_local_clock.lto_priv.0
 .text.recv_and_process_peer_pkt
                0x00405790      0x3d0 /mnt/md0/miranda/openwrt/tmp/cca1aXTG.ltrans1.ltrans.o
 .text.ntp_init
                0x00405b60      0x298 /mnt/md0/miranda/openwrt/tmp/cca1aXTG.ltrans1.ltrans.o
 .text.ntpd_main
                0x00405df8      0x458 /mnt/md0/miranda/openwrt/tmp/cca1aXTG.ltrans1.ltrans.o
                0x00405df9                ntpd_main
 .text.subevalvar
                0x00406250      0x600 /mnt/md0/miranda/openwrt/tmp/cca1aXTG.ltrans2.ltrans.o
 .text.hexdump_main
                0x00406850      0x1a0 /mnt/md0/miranda/openwrt/tmp/cca1aXTG.ltrans3.ltrans.o
                0x00406851                hexdump_main
 .text.mkswap_main
                0x004069f0      0x160 /mnt/md0/miranda/openwrt/tmp/cca1aXTG.ltrans3.ltrans.o
                0x004069f1                mkswap_main
 .text.nice_main
                0x00406b50       0xf0 /mnt/md0/miranda/openwrt/tmp/cca1aXTG.ltrans5.ltrans.o
                0x00406b51                nice_main
 .text.conv_strtod
                0x00406c40       0x38 /mnt/md0/miranda/openwrt/tmp/cca1aXTG.ltrans5.ltrans.o
 .text.getvar_i
                0x00406c78       0x70 /mnt/md0/miranda/openwrt/tmp/cca1aXTG.ltrans5.ltrans.o
 .text.getvar_i_int
                0x00406ce8       0x48 /mnt/md0/miranda/openwrt/tmp/cca1aXTG.ltrans5.ltrans.o
 .text.istrue   0x00406d30       0x48 /mnt/md0/miranda/openwrt/tmp/cca1aXTG.ltrans5.ltrans.o
 .text.seq_main
                0x00406d78      0x1b8 /mnt/md0/miranda/openwrt/tmp/cca1aXTG.ltrans5.ltrans.o
                0x00406d79                seq_main
 .text.incvar   0x00406f30       0x30 /mnt/md0/miranda/openwrt/tmp/cca1aXTG.ltrans5.ltrans.o
 .text.next_input_file
                0x00406f60       0xc0 /mnt/md0/miranda/openwrt/tmp/cca1aXTG.ltrans5.ltrans.o
 .text.evaluate.lto_priv.0
                0x00407020      0xc98 /mnt/md0/miranda/openwrt/tmp/cca1aXTG.ltrans5.ltrans.o
                0x00407021                evaluate.lto_priv.0
 .text.exec_builtin
                0x00407cb8      0x3d0 /mnt/md0/miranda/openwrt/tmp/cca1aXTG.ltrans5.ltrans.o
 .text.awk_main
                0x00408088      0x358 /mnt/md0/miranda/openwrt/tmp/cca1aXTG.ltrans5.ltrans.o
                0x00408089                awk_main
 .text.file_insert
                0x004083e0      0x110 /mnt/md0/miranda/openwrt/tmp/cca1aXTG.ltrans6.ltrans.o
 .text._start_c
                0x004084f0       0x40 /mnt/md0/miranda/openwrt/staging_dir/toolchain-mips_24kc_gcc-12.3.0_musl/lib/gcc/mips-openwrt-linux-musl/12.3.0/../../../../mips-openwrt-linux-musl/lib/crt1.o
                0x004084f0                _start_c
 .text.record_signo
                0x00408530        0xc /mnt/md0/miranda/openwrt/tmp/cca1aXTG.ltrans0.ltrans.o
                0x00408531                record_signo
 .text.at_end   0x0040853c       0x1c /mnt/md0/miranda/openwrt/tmp/cca1aXTG.ltrans0.ltrans.o
 .text.cap_cur_fline
                0x00408558       0x28 /mnt/md0/miranda/openwrt/tmp/cca1aXTG.ltrans0.ltrans.o
 .text.ptok     0x00408580       0x28 /mnt/md0/miranda/openwrt/tmp/cca1aXTG.ltrans0.ltrans.o
 .text.prg_cache_get
                0x004085a8       0x30 /mnt/md0/miranda/openwrt/tmp/cca1aXTG.ltrans0.ltrans.o
 .text.compare_point_edge
                0x004085d8       0x3c /mnt/md0/miranda/openwrt/tmp/cca1aXTG.ltrans0.ltrans.o
 .text.compare_survivor_metric
                0x00408614       0x3c /mnt/md0/miranda/openwrt/tmp/cca1aXTG.ltrans0.ltrans.o
 .text.bb_get_last_path_component_nostrip
                0x00408650       0x20 /mnt/md0/miranda/openwrt/tmp/cca1aXTG.ltrans0.ltrans.o
 .text.jump     0x00408670       0x1c /mnt/md0/miranda/openwrt/tmp/cca1aXTG.ltrans0.ltrans.o
 .text.delete_cronfile
                0x0040868c       0x70 /mnt/md0/miranda/openwrt/tmp/cca1aXTG.ltrans0.ltrans.o
 .text.clear_line
                0x004086fc       0x1c /mnt/md0/miranda/openwrt/tmp/cca1aXTG.ltrans0.ltrans.o
 .text.print_statusline
                0x00408718       0x24 /mnt/md0/miranda/openwrt/tmp/cca1aXTG.ltrans0.ltrans.o
 .text.show_bridge_timer
                0x0040873c       0x50 /mnt/md0/miranda/openwrt/tmp/cca1aXTG.ltrans0.ltrans.o
 .text.print_bytes_scaled
                0x0040878c       0x60 /mnt/md0/miranda/openwrt/tmp/cca1aXTG.ltrans0.ltrans.o
 .text.status_print
                0x004087ec       0x58 /mnt/md0/miranda/openwrt/tmp/cca1aXTG.ltrans0.ltrans.o
 .text.exit_unlock
                0x00408844       0x18 /mnt/md0/miranda/openwrt/tmp/cca1aXTG.ltrans0.ltrans.o
 .text.lock_main
                0x0040885c      0x1e8 /mnt/md0/miranda/openwrt/tmp/cca1aXTG.ltrans0.ltrans.o
 .text.compare_fdbs
                0x00408a44        0xc /mnt/md0/miranda/openwrt/tmp/cca1aXTG.ltrans0.ltrans.o
 .text.add_ns   0x00408a50       0x3c /mnt/md0/miranda/openwrt/tmp/cca1aXTG.ltrans0.ltrans.o
 .text.INET_sprint
                0x00408a8c       0x2c /mnt/md0/miranda/openwrt/tmp/cca1aXTG.ltrans0.ltrans.o
 .text.INET_input
                0x00408ab8        0xc /mnt/md0/miranda/openwrt/tmp/cca1aXTG.ltrans0.ltrans.o
 .text.INET6_input
                0x00408ac4        0xc /mnt/md0/miranda/openwrt/tmp/cca1aXTG.ltrans0.ltrans.o
 .text.netmsg_main
                0x00408ad0      0x108 /mnt/md0/miranda/openwrt/tmp/cca1aXTG.ltrans0.ltrans.o
 .text.build_ipv6_addr
                0x00408bd8       0x54 /mnt/md0/miranda/openwrt/tmp/cca1aXTG.ltrans0.ltrans.o
 .text.scan_inet_proc_line
                0x00408c2c       0x90 /mnt/md0/miranda/openwrt/tmp/cca1aXTG.ltrans0.ltrans.o
 .text.parse_reply
                0x00408cbc      0x348 /mnt/md0/miranda/openwrt/tmp/cca1aXTG.ltrans0.ltrans.o
 .text.add_query
                0x00409004       0x54 /mnt/md0/miranda/openwrt/tmp/cca1aXTG.ltrans0.ltrans.o
 .text.string_array_len
                0x00409058       0x10 /mnt/md0/miranda/openwrt/tmp/cca1aXTG.ltrans0.ltrans.o
                0x00409059                string_array_len
 .text.find_applet_by_name
                0x00409068       0x7c /mnt/md0/miranda/openwrt/tmp/cca1aXTG.ltrans0.ltrans.o
                0x00409069                find_applet_by_name
 .text.is_prefixed_with
                0x004090e4       0x18 /mnt/md0/miranda/openwrt/tmp/cca1aXTG.ltrans0.ltrans.o
                0x004090e5                is_prefixed_with
 .text.index_in_strings
                0x004090fc       0x28 /mnt/md0/miranda/openwrt/tmp/cca1aXTG.ltrans0.ltrans.o
                0x004090fd                index_in_strings
 .text.index_in_substrings
                0x00409124       0x58 /mnt/md0/miranda/openwrt/tmp/cca1aXTG.ltrans0.ltrans.o
                0x00409125                index_in_substrings
 .text.nth_string
                0x0040917c       0x14 /mnt/md0/miranda/openwrt/tmp/cca1aXTG.ltrans0.ltrans.o
                0x0040917d                nth_string
 .text.bb_basename
                0x00409190       0x14 /mnt/md0/miranda/openwrt/tmp/cca1aXTG.ltrans0.ltrans.o
                0x00409191                bb_basename
 .text.last_char_is
                0x004091a4       0x20 /mnt/md0/miranda/openwrt/tmp/cca1aXTG.ltrans0.ltrans.o
                0x004091a5                last_char_is
 .text.bb_get_last_path_component_strip
                0x004091c4       0x28 /mnt/md0/miranda/openwrt/tmp/cca1aXTG.ltrans0.ltrans.o
                0x004091c5                bb_get_last_path_component_strip
 .text.unix_do_one
                0x004091ec      0x250 /mnt/md0/miranda/openwrt/tmp/cca1aXTG.ltrans0.ltrans.o
 .text.xfunc_die
                0x0040943c       0x1c /mnt/md0/miranda/openwrt/tmp/cca1aXTG.ltrans0.ltrans.o
                0x0040943d                xfunc_die
 .text.bb_show_usage
                0x00409458       0x8c /mnt/md0/miranda/openwrt/tmp/cca1aXTG.ltrans0.ltrans.o
                0x00409459                bb_show_usage
 .text.show_usage_if_dash_dash_help
                0x004094e4       0x40 /mnt/md0/miranda/openwrt/tmp/cca1aXTG.ltrans0.ltrans.o
 .text.ip_print_help
                0x00409524        0x8 /mnt/md0/miranda/openwrt/tmp/cca1aXTG.ltrans0.ltrans.o
 .text.ip_main  0x0040952c       0xd0 /mnt/md0/miranda/openwrt/tmp/cca1aXTG.ltrans0.ltrans.o
 .text.run_applet_no_and_exit
                0x004095fc       0x3c /mnt/md0/miranda/openwrt/tmp/cca1aXTG.ltrans0.ltrans.o
 .text.main     0x00409638       0xa4 /mnt/md0/miranda/openwrt/tmp/cca1aXTG.ltrans0.ltrans.o
                0x00409639                main
 .text.ndelay_on
                0x004096dc       0x24 /mnt/md0/miranda/openwrt/tmp/cca1aXTG.ltrans0.ltrans.o
                0x004096dd                ndelay_on
 .text.close_on_exec_on
                0x00409700       0x10 /mnt/md0/miranda/openwrt/tmp/cca1aXTG.ltrans0.ltrans.o
                0x00409701                close_on_exec_on
 .text.utoa_to_buf
                0x00409710       0x4c /mnt/md0/miranda/openwrt/tmp/cca1aXTG.ltrans0.ltrans.o
                0x00409711                utoa_to_buf
 .text.utoa     0x0040975c       0x18 /mnt/md0/miranda/openwrt/tmp/cca1aXTG.ltrans0.ltrans.o
                0x0040975d                utoa
 .text.itoa     0x00409774       0x30 /mnt/md0/miranda/openwrt/tmp/cca1aXTG.ltrans0.ltrans.o
                0x00409775                itoa
 .text.bin2hex  0x004097a4       0x50 /mnt/md0/miranda/openwrt/tmp/cca1aXTG.ltrans0.ltrans.o
                0x004097a5                bin2hex
 .text.get_terminal_width_height
                0x004097f4       0x80 /mnt/md0/miranda/openwrt/tmp/cca1aXTG.ltrans0.ltrans.o
                0x004097f5                get_terminal_width_height
 .text.is_TERM_dumb
                0x00409874       0x2c /mnt/md0/miranda/openwrt/tmp/cca1aXTG.ltrans0.ltrans.o
                0x00409875                is_TERM_dumb
 .text.safe_waitpid
                0x004098a0       0x28 /mnt/md0/miranda/openwrt/tmp/cca1aXTG.ltrans0.ltrans.o
                0x004098a1                safe_waitpid
 .text.wait4pid
                0x004098c8       0x40 /mnt/md0/miranda/openwrt/tmp/cca1aXTG.ltrans0.ltrans.o
 .text._exit_SUCCESS
                0x00409908        0x8 /mnt/md0/miranda/openwrt/tmp/cca1aXTG.ltrans0.ltrans.o
                0x00409909                _exit_SUCCESS
 .text.fflush_all
                0x00409910        0xc /mnt/md0/miranda/openwrt/tmp/cca1aXTG.ltrans0.ltrans.o
                0x00409911                fflush_all
 .text.run_nofork_applet
                0x0040991c      0x19c /mnt/md0/miranda/openwrt/tmp/cca1aXTG.ltrans0.ltrans.o
 .text.spawn    0x00409ab8       0x50 /mnt/md0/miranda/openwrt/tmp/cca1aXTG.ltrans0.ltrans.o
 .text.spawn_and_wait
                0x00409b08       0xa4 /mnt/md0/miranda/openwrt/tmp/cca1aXTG.ltrans0.ltrans.o
                0x00409b09                spawn_and_wait
 .text.alarm_handler
                0x00409bac       0x34 /mnt/md0/miranda/openwrt/tmp/cca1aXTG.ltrans0.ltrans.o
 .text.set_tty_cooked
                0x00409be0       0x20 /mnt/md0/miranda/openwrt/tmp/cca1aXTG.ltrans0.ltrans.o
 .text.restore_tty
                0x00409c00       0x28 /mnt/md0/miranda/openwrt/tmp/cca1aXTG.ltrans0.ltrans.o
 .text.less_exit
                0x00409c28       0x10 /mnt/md0/miranda/openwrt/tmp/cca1aXTG.ltrans0.ltrans.o
 .text.buffer_print
                0x00409c38      0x178 /mnt/md0/miranda/openwrt/tmp/cca1aXTG.ltrans0.ltrans.o
 .text.buffer_fill_and_print
                0x00409db0       0x4c /mnt/md0/miranda/openwrt/tmp/cca1aXTG.ltrans0.ltrans.o
 .text.file_is_executable
                0x00409dfc       0x34 /mnt/md0/miranda/openwrt/tmp/cca1aXTG.ltrans0.ltrans.o
                0x00409dfd                file_is_executable
 .text.llist_pop
                0x00409e30       0x1c /mnt/md0/miranda/openwrt/tmp/cca1aXTG.ltrans0.ltrans.o
                0x00409e31                llist_pop
 .text.safe_read
                0x00409e4c       0x2c /mnt/md0/miranda/openwrt/tmp/cca1aXTG.ltrans0.ltrans.o
                0x00409e4d                safe_read
 .text.full_read
                0x00409e78       0x30 /mnt/md0/miranda/openwrt/tmp/cca1aXTG.ltrans0.ltrans.o
                0x00409e79                full_read
 .text.open_read_close
                0x00409ea8       0x2c /mnt/md0/miranda/openwrt/tmp/cca1aXTG.ltrans0.ltrans.o
                0x00409ea9                open_read_close
 .text.read_file
                0x00409ed4       0x3c /mnt/md0/miranda/openwrt/tmp/cca1aXTG.ltrans0.ltrans.o
 .text.show_bridge
                0x00409f10      0x12c /mnt/md0/miranda/openwrt/tmp/cca1aXTG.ltrans0.ltrans.o
 .text.safe_strncpy
                0x0040a03c       0x1c /mnt/md0/miranda/openwrt/tmp/cca1aXTG.ltrans0.ltrans.o
                0x0040a03d                safe_strncpy
 .text.overlapping_strcpy
                0x0040a058       0x14 /mnt/md0/miranda/openwrt/tmp/cca1aXTG.ltrans0.ltrans.o
                0x0040a059                overlapping_strcpy
 .text.safe_write
                0x0040a06c       0x2c /mnt/md0/miranda/openwrt/tmp/cca1aXTG.ltrans0.ltrans.o
                0x0040a06d                safe_write
 .text.full_write
                0x0040a098       0x30 /mnt/md0/miranda/openwrt/tmp/cca1aXTG.ltrans0.ltrans.o
                0x0040a099                full_write
 .text.bb_signals
                0x0040a0c8       0x2c /mnt/md0/miranda/openwrt/tmp/cca1aXTG.ltrans0.ltrans.o
                0x0040a0c9                bb_signals
 .text.kill_myself_with_sig
                0x0040a0f4       0x34 /mnt/md0/miranda/openwrt/tmp/cca1aXTG.ltrans0.ltrans.o
                0x0040a0f5                kill_myself_with_sig
 .text.sig_catcher
                0x0040a128       0x10 /mnt/md0/miranda/openwrt/tmp/cca1aXTG.ltrans0.ltrans.o
 .text.strftime_fmt.lto_priv.0
                0x0040a138       0x30 /mnt/md0/miranda/openwrt/tmp/cca1aXTG.ltrans0.ltrans.o
                0x0040a139                strftime_fmt.lto_priv.0
 .text.bb_verror_msg
                0x0040a168      0x174 /mnt/md0/miranda/openwrt/tmp/cca1aXTG.ltrans0.ltrans.o
                0x0040a169                bb_verror_msg
 .text.ioctl_or_perror_and_die
                0x0040a2dc       0x34 /mnt/md0/miranda/openwrt/tmp/cca1aXTG.ltrans0.ltrans.o
 .text.bb_perror_msg
                0x0040a310       0x30 /mnt/md0/miranda/openwrt/tmp/cca1aXTG.ltrans0.ltrans.o
                0x0040a311                bb_perror_msg
 .text.open3_or_warn
                0x0040a340       0x20 /mnt/md0/miranda/openwrt/tmp/cca1aXTG.ltrans0.ltrans.o
                0x0040a341                open3_or_warn
 .text.chdir_or_warn
                0x0040a360       0x20 /mnt/md0/miranda/openwrt/tmp/cca1aXTG.ltrans0.ltrans.o
                0x0040a361                chdir_or_warn
 .text.xchdir   0x0040a380       0x14 /mnt/md0/miranda/openwrt/tmp/cca1aXTG.ltrans0.ltrans.o
                0x0040a381                xchdir
 .text.bb_simple_perror_msg
                0x0040a394       0x14 /mnt/md0/miranda/openwrt/tmp/cca1aXTG.ltrans0.ltrans.o
                0x0040a395                bb_simple_perror_msg
 .text.bb_copyfd_eof
                0x0040a3a8       0x10 /mnt/md0/miranda/openwrt/tmp/cca1aXTG.ltrans0.ltrans.o
                0x0040a3a9                bb_copyfd_eof
 .text.bb_perror_msg_and_die
                0x0040a3b8       0x30 /mnt/md0/miranda/openwrt/tmp/cca1aXTG.ltrans0.ltrans.o
                0x0040a3b9                bb_perror_msg_and_die
 .text.xfopen   0x0040a3e8       0x1c /mnt/md0/miranda/openwrt/tmp/cca1aXTG.ltrans0.ltrans.o
                0x0040a3e9                xfopen
 .text.xopen3   0x0040a404       0x1c /mnt/md0/miranda/openwrt/tmp/cca1aXTG.ltrans0.ltrans.o
                0x0040a405                xopen3
 .text.xopen    0x0040a420       0x10 /mnt/md0/miranda/openwrt/tmp/cca1aXTG.ltrans0.ltrans.o
                0x0040a421                xopen
 .text.xrename  0x0040a430       0x20 /mnt/md0/miranda/openwrt/tmp/cca1aXTG.ltrans0.ltrans.o
                0x0040a431                xrename
 .text.xlseek   0x0040a450       0x2c /mnt/md0/miranda/openwrt/tmp/cca1aXTG.ltrans0.ltrans.o
                0x0040a451                xlseek
 .text.xchroot  0x0040a47c       0x28 /mnt/md0/miranda/openwrt/tmp/cca1aXTG.ltrans0.ltrans.o
                0x0040a47d                xchroot
 .text.xopendir
                0x0040a4a4       0x1c /mnt/md0/miranda/openwrt/tmp/cca1aXTG.ltrans0.ltrans.o
                0x0040a4a5                xopendir
 .text.xsocket  0x0040a4c0       0x48 /mnt/md0/miranda/openwrt/tmp/cca1aXTG.ltrans0.ltrans.o
                0x0040a4c1                xsocket
 .text.xstat    0x0040a508       0x1c /mnt/md0/miranda/openwrt/tmp/cca1aXTG.ltrans0.ltrans.o
                0x0040a509                xstat
 .text.BB_EXECVP_or_die
                0x0040a524       0x34 /mnt/md0/miranda/openwrt/tmp/cca1aXTG.ltrans0.ltrans.o
                0x0040a525                BB_EXECVP_or_die
 .text.bb_simple_perror_msg_and_die
                0x0040a558       0x10 /mnt/md0/miranda/openwrt/tmp/cca1aXTG.ltrans0.ltrans.o
                0x0040a559                bb_simple_perror_msg_and_die
 .text.xpipe    0x0040a568       0x1c /mnt/md0/miranda/openwrt/tmp/cca1aXTG.ltrans0.ltrans.o
                0x0040a569                xpipe
 .text.xdup2    0x0040a584       0x1c /mnt/md0/miranda/openwrt/tmp/cca1aXTG.ltrans0.ltrans.o
                0x0040a585                xdup2
 .text.bb_daemonize_or_rexec
                0x0040a5a0       0xac /mnt/md0/miranda/openwrt/tmp/cca1aXTG.ltrans0.ltrans.o
                0x0040a5a1                bb_daemonize_or_rexec
 .text.xmove_fd
                0x0040a64c       0x18 /mnt/md0/miranda/openwrt/tmp/cca1aXTG.ltrans0.ltrans.o
                0x0040a64d                xmove_fd
 .text.reopen_logfile_to_stderr
                0x0040a664       0x2c /mnt/md0/miranda/openwrt/tmp/cca1aXTG.ltrans0.ltrans.o
 .text.xwrite   0x0040a690       0x2c /mnt/md0/miranda/openwrt/tmp/cca1aXTG.ltrans0.ltrans.o
                0x0040a691                xwrite
 .text.xclose   0x0040a6bc       0x1c /mnt/md0/miranda/openwrt/tmp/cca1aXTG.ltrans0.ltrans.o
                0x0040a6bd                xclose
 .text.xsetgid  0x0040a6d8       0x1c /mnt/md0/miranda/openwrt/tmp/cca1aXTG.ltrans0.ltrans.o
                0x0040a6d9                xsetgid
 .text.xsetuid  0x0040a6f4       0x1c /mnt/md0/miranda/openwrt/tmp/cca1aXTG.ltrans0.ltrans.o
                0x0040a6f5                xsetuid
 .text.xbind    0x0040a710       0x1c /mnt/md0/miranda/openwrt/tmp/cca1aXTG.ltrans0.ltrans.o
                0x0040a711                xbind
 .text.xsendto  0x0040a72c       0x24 /mnt/md0/miranda/openwrt/tmp/cca1aXTG.ltrans0.ltrans.o
                0x0040a72d                xsendto
 .text.xsettimeofday
                0x0040a750       0x1c /mnt/md0/miranda/openwrt/tmp/cca1aXTG.ltrans0.ltrans.o
                0x0040a751                xsettimeofday
 .text.write_uint
                0x0040a76c       0x54 /mnt/md0/miranda/openwrt/tmp/cca1aXTG.ltrans0.ltrans.o
 .text.edit_file
                0x0040a7c0       0x94 /mnt/md0/miranda/openwrt/tmp/cca1aXTG.ltrans0.ltrans.o
 .text.log8     0x0040a854       0x20 /mnt/md0/miranda/openwrt/tmp/cca1aXTG.ltrans0.ltrans.o
 .text.log5     0x0040a874       0x20 /mnt/md0/miranda/openwrt/tmp/cca1aXTG.ltrans0.ltrans.o
 .text.bb_error_msg_and_die
                0x0040a894       0x14 /mnt/md0/miranda/openwrt/tmp/cca1aXTG.ltrans0.ltrans.o
                0x0040a895                bb_error_msg_and_die
 .text.die_if_ferror
                0x0040a8a8       0x1c /mnt/md0/miranda/openwrt/tmp/cca1aXTG.ltrans0.ltrans.o
                0x0040a8a9                die_if_ferror
 .text.parse_datestr
                0x0040a8c4      0x328 /mnt/md0/miranda/openwrt/tmp/cca1aXTG.ltrans0.ltrans.o
                0x0040a8c5                parse_datestr
 .text.bb_error_msg
                0x0040abec       0x14 /mnt/md0/miranda/openwrt/tmp/cca1aXTG.ltrans0.ltrans.o
                0x0040abed                bb_error_msg
 .text.ParseField
                0x0040ac00      0x170 /mnt/md0/miranda/openwrt/tmp/cca1aXTG.ltrans0.ltrans.o
 .text.do_if_fetch
                0x0040ad70      0x1f0 /mnt/md0/miranda/openwrt/tmp/cca1aXTG.ltrans0.ltrans.o
 .text.bb_simple_error_msg
                0x0040af60       0x14 /mnt/md0/miranda/openwrt/tmp/cca1aXTG.ltrans0.ltrans.o
                0x0040af61                bb_simple_error_msg
 .text.bb_simple_error_msg_and_die
                0x0040af74       0x10 /mnt/md0/miranda/openwrt/tmp/cca1aXTG.ltrans0.ltrans.o
                0x0040af75                bb_simple_error_msg_and_die
 .text.bb_die_memory_exhausted
                0x0040af84       0x10 /mnt/md0/miranda/openwrt/tmp/cca1aXTG.ltrans0.ltrans.o
                0x0040af85                bb_die_memory_exhausted
 .text.xmalloc  0x0040af94       0x18 /mnt/md0/miranda/openwrt/tmp/cca1aXTG.ltrans0.ltrans.o
                0x0040af95                xmalloc
 .text.xzalloc  0x0040afac       0x1c /mnt/md0/miranda/openwrt/tmp/cca1aXTG.ltrans0.ltrans.o
                0x0040afad                xzalloc
 .text.llist_add_to_end
                0x0040afc8       0x1c /mnt/md0/miranda/openwrt/tmp/cca1aXTG.ltrans0.ltrans.o
                0x0040afc9                llist_add_to_end
 .text.xmemdup  0x0040afe4       0x30 /mnt/md0/miranda/openwrt/tmp/cca1aXTG.ltrans0.ltrans.o
                0x0040afe5                xmemdup
 .text.llist_add_to
                0x0040b014       0x18 /mnt/md0/miranda/openwrt/tmp/cca1aXTG.ltrans0.ltrans.o
                0x0040b015                llist_add_to
 .text.UNSPEC_print
                0x0040b02c       0x44 /mnt/md0/miranda/openwrt/tmp/cca1aXTG.ltrans0.ltrans.o
 .text.UNSPEC_sprint
                0x0040b070       0x24 /mnt/md0/miranda/openwrt/tmp/cca1aXTG.ltrans0.ltrans.o
 .text.xrealloc
                0x0040b094       0x18 /mnt/md0/miranda/openwrt/tmp/cca1aXTG.ltrans0.ltrans.o
                0x0040b095                xrealloc
 .text.read_lines
                0x0040b0ac      0x23c /mnt/md0/miranda/openwrt/tmp/cca1aXTG.ltrans0.ltrans.o
 .text.buffer_down
                0x0040b2e8       0x24 /mnt/md0/miranda/openwrt/tmp/cca1aXTG.ltrans0.ltrans.o
 .text.buffer_up
                0x0040b30c       0x24 /mnt/md0/miranda/openwrt/tmp/cca1aXTG.ltrans0.ltrans.o
 .text.buffer_to_line
                0x0040b330       0x88 /mnt/md0/miranda/openwrt/tmp/cca1aXTG.ltrans0.ltrans.o
 .text.getch_nowait
                0x0040b3b8       0xc0 /mnt/md0/miranda/openwrt/tmp/cca1aXTG.ltrans0.ltrans.o
 .text.less_getch
                0x0040b478       0x2c /mnt/md0/miranda/openwrt/tmp/cca1aXTG.ltrans0.ltrans.o
 .text.less_gets
                0x0040b4a4       0x8c /mnt/md0/miranda/openwrt/tmp/cca1aXTG.ltrans0.ltrans.o
 .text.do_info  0x0040b530       0xcc /mnt/md0/miranda/openwrt/tmp/cca1aXTG.ltrans0.ltrans.o
 .text.xstrdup  0x0040b5fc       0x1c /mnt/md0/miranda/openwrt/tmp/cca1aXTG.ltrans0.ltrans.o
                0x0040b5fd                xstrdup
 .text.xmalloc_ttyname
                0x0040b618       0x20 /mnt/md0/miranda/openwrt/tmp/cca1aXTG.ltrans0.ltrans.o
 .text.load_crontab
                0x0040b638      0x234 /mnt/md0/miranda/openwrt/tmp/cca1aXTG.ltrans0.ltrans.o
 .text.rescan_crontab_dir
                0x0040b86c       0x70 /mnt/md0/miranda/openwrt/tmp/cca1aXTG.ltrans0.ltrans.o
 .text.reinitialize
                0x0040b8dc       0x84 /mnt/md0/miranda/openwrt/tmp/cca1aXTG.ltrans0.ltrans.o
 .text.examine_file
                0x0040b960       0x64 /mnt/md0/miranda/openwrt/tmp/cca1aXTG.ltrans0.ltrans.o
 .text.change_file
                0x0040b9c4       0x5c /mnt/md0/miranda/openwrt/tmp/cca1aXTG.ltrans0.ltrans.o
 .text.INET6_sprint
                0x0040ba20       0x7c /mnt/md0/miranda/openwrt/tmp/cca1aXTG.ltrans0.ltrans.o
 .text.ife_print
                0x0040ba9c      0x4bc /mnt/md0/miranda/openwrt/tmp/cca1aXTG.ltrans0.ltrans.o
 .text.parse_resolvconf
                0x0040bf58       0xdc /mnt/md0/miranda/openwrt/tmp/cca1aXTG.ltrans0.ltrans.o
 .text.xstrndup
                0x0040c034       0x14 /mnt/md0/miranda/openwrt/tmp/cca1aXTG.ltrans0.ltrans.o
                0x0040c035                xstrndup
 .text.bb_unsetenv
                0x0040c048       0x48 /mnt/md0/miranda/openwrt/tmp/cca1aXTG.ltrans0.ltrans.o
                0x0040c049                bb_unsetenv
 .text.xasprintf
                0x0040c090       0x20 /mnt/md0/miranda/openwrt/tmp/cca1aXTG.ltrans0.ltrans.o
                0x0040c091                xasprintf
 .text.safe_setenv
                0x0040c0b0       0x30 /mnt/md0/miranda/openwrt/tmp/cca1aXTG.ltrans0.ltrans.o
 .text.start_one_job
                0x0040c0e0      0x108 /mnt/md0/miranda/openwrt/tmp/cca1aXTG.ltrans0.ltrans.o
 .text.ether_print
                0x0040c1e8       0x2c /mnt/md0/miranda/openwrt/tmp/cca1aXTG.ltrans0.ltrans.o
 .text.ip_port_str
                0x0040c214       0x74 /mnt/md0/miranda/openwrt/tmp/cca1aXTG.ltrans0.ltrans.o
 .text.print_inet_line
                0x0040c288       0xa0 /mnt/md0/miranda/openwrt/tmp/cca1aXTG.ltrans0.ltrans.o
 .text.tcp_do_one
                0x0040c328       0x58 /mnt/md0/miranda/openwrt/tmp/cca1aXTG.ltrans0.ltrans.o
 .text.udp_do_one
                0x0040c380       0x90 /mnt/md0/miranda/openwrt/tmp/cca1aXTG.ltrans0.ltrans.o
 .text.raw_do_one
                0x0040c410       0x78 /mnt/md0/miranda/openwrt/tmp/cca1aXTG.ltrans0.ltrans.o
 .text.add_query_with_search
                0x0040c488       0x58 /mnt/md0/miranda/openwrt/tmp/cca1aXTG.ltrans0.ltrans.o
 .text.xsetenv  0x0040c4e0       0x14 /mnt/md0/miranda/openwrt/tmp/cca1aXTG.ltrans0.ltrans.o
                0x0040c4e1                xsetenv
 .text.bb_copyfd_exact_size
                0x0040c4f4       0x4c /mnt/md0/miranda/openwrt/tmp/cca1aXTG.ltrans0.ltrans.o
                0x0040c4f5                bb_copyfd_exact_size
 .text.get_mono
                0x0040c540       0x1c /mnt/md0/miranda/openwrt/tmp/cca1aXTG.ltrans0.ltrans.o
 .text.monotonic_us
                0x0040c55c       0x44 /mnt/md0/miranda/openwrt/tmp/cca1aXTG.ltrans0.ltrans.o
                0x0040c55d                monotonic_us
 .text.monotonic_ms
                0x0040c5a0       0x44 /mnt/md0/miranda/openwrt/tmp/cca1aXTG.ltrans0.ltrans.o
                0x0040c5a1                monotonic_ms
 .text.run_command
                0x0040c5e4       0xa4 /mnt/md0/miranda/openwrt/tmp/cca1aXTG.ltrans0.ltrans.o
 .text.send_queries
                0x0040c688      0x254 /mnt/md0/miranda/openwrt/tmp/cca1aXTG.ltrans0.ltrans.o
 .text.monotonic_sec
                0x0040c8dc       0x10 /mnt/md0/miranda/openwrt/tmp/cca1aXTG.ltrans0.ltrans.o
                0x0040c8dd                monotonic_sec
 .text.xatoull_sfx
                0x0040c8ec       0x18 /mnt/md0/miranda/openwrt/tmp/cca1aXTG.ltrans0.ltrans.o
                0x0040c8ed                xatoull_sfx
 .text.xstrtoul_range_sfx
                0x0040c904       0xa8 /mnt/md0/miranda/openwrt/tmp/cca1aXTG.ltrans0.ltrans.o
                0x0040c905                xstrtoul_range_sfx
 .text.printf_xstrtou
                0x0040c9ac       0x28 /mnt/md0/miranda/openwrt/tmp/cca1aXTG.ltrans0.ltrans.o
 .text.show_bridge_port
                0x0040c9d4      0x2b8 /mnt/md0/miranda/openwrt/tmp/cca1aXTG.ltrans0.ltrans.o
 .text.xatoul_range
                0x0040cc8c       0x14 /mnt/md0/miranda/openwrt/tmp/cca1aXTG.ltrans0.ltrans.o
                0x0040cc8d                xatoul_range
 .text.nslookup_main
                0x0040cca0      0x2ec /mnt/md0/miranda/openwrt/tmp/cca1aXTG.ltrans0.ltrans.o
 .text.xatoul_sfx
                0x0040cf8c       0x14 /mnt/md0/miranda/openwrt/tmp/cca1aXTG.ltrans0.ltrans.o
                0x0040cf8d                xatoul_sfx
 .text.xatoi_positive
                0x0040cfa0       0x14 /mnt/md0/miranda/openwrt/tmp/cca1aXTG.ltrans0.ltrans.o
                0x0040cfa1                xatoi_positive
 .text.vgetopt32
                0x0040cfb4      0x3fc /mnt/md0/miranda/openwrt/tmp/cca1aXTG.ltrans0.ltrans.o
 .text.getopt32
                0x0040d3b0       0x14 /mnt/md0/miranda/openwrt/tmp/cca1aXTG.ltrans0.ltrans.o
                0x0040d3b1                getopt32
 .text.crond_main
                0x0040d3c4      0x330 /mnt/md0/miranda/openwrt/tmp/cca1aXTG.ltrans0.ltrans.o
 .text.crontab_main
                0x0040d6f4      0x230 /mnt/md0/miranda/openwrt/tmp/cca1aXTG.ltrans0.ltrans.o
 .text.strings_main
                0x0040d924      0x190 /mnt/md0/miranda/openwrt/tmp/cca1aXTG.ltrans0.ltrans.o
 .text.time_main
                0x0040dab4      0x434 /mnt/md0/miranda/openwrt/tmp/cca1aXTG.ltrans0.ltrans.o
 .text.netstat_main
                0x0040dee8      0x248 /mnt/md0/miranda/openwrt/tmp/cca1aXTG.ltrans0.ltrans.o
 .text.getopt32long
                0x0040e130       0x10 /mnt/md0/miranda/openwrt/tmp/cca1aXTG.ltrans0.ltrans.o
                0x0040e131                getopt32long
 .text.login_main
                0x0040e140      0x38c /mnt/md0/miranda/openwrt/tmp/cca1aXTG.ltrans0.ltrans.o
 .text.bb_strtoull
                0x0040e4cc       0x4c /mnt/md0/miranda/openwrt/tmp/cca1aXTG.ltrans0.ltrans.o
                0x0040e4cd                bb_strtoull
 .text.bb_strtoul
                0x0040e518       0x4c /mnt/md0/miranda/openwrt/tmp/cca1aXTG.ltrans0.ltrans.o
                0x0040e519                bb_strtoul
 .text.less_main
                0x0040e564      0x554 /mnt/md0/miranda/openwrt/tmp/cca1aXTG.ltrans0.ltrans.o
 .text.nc_main  0x0040eab8      0x120 /mnt/md0/miranda/openwrt/tmp/cca1aXTG.ltrans0.ltrans.o
 .text.add_to_prg_cache_if_socket
                0x0040ebd8       0xbc /mnt/md0/miranda/openwrt/tmp/cca1aXTG.ltrans0.ltrans.o
 .text.bb_strtol
                0x0040ec94       0x54 /mnt/md0/miranda/openwrt/tmp/cca1aXTG.ltrans0.ltrans.o
                0x0040ec95                bb_strtol
 .text.concat_path_file
                0x0040ece8       0x38 /mnt/md0/miranda/openwrt/tmp/cca1aXTG.ltrans0.ltrans.o
                0x0040ece9                concat_path_file
 .text.dir_act  0x0040ed20       0xac /mnt/md0/miranda/openwrt/tmp/cca1aXTG.ltrans0.ltrans.o
 .text.add_interface.lto_priv.0
                0x0040edcc       0x50 /mnt/md0/miranda/openwrt/tmp/cca1aXTG.ltrans0.ltrans.o
                0x0040edcd                add_interface.lto_priv.0
 .text.ifconfig_main
                0x0040ee1c      0x448 /mnt/md0/miranda/openwrt/tmp/cca1aXTG.ltrans0.ltrans.o
 .text.set_next.lto_priv.0
                0x0040f264       0x28 /mnt/md0/miranda/openwrt/tmp/cca1aXTG.ltrans0.ltrans.o
                0x0040f265                set_next.lto_priv.0
 .text.resolve_peer_hostname.lto_priv.0
                0x0040f28c       0xe4 /mnt/md0/miranda/openwrt/tmp/cca1aXTG.ltrans0.ltrans.o
                0x0040f28d                resolve_peer_hostname.lto_priv.0
 .text.run_script.lto_priv.0
                0x0040f370       0xe8 /mnt/md0/miranda/openwrt/tmp/cca1aXTG.ltrans0.ltrans.o
                0x0040f371                run_script.lto_priv.0
 .text.clamp_pollexp_and_set_MAXSTRAT.lto_priv.0
                0x0040f458       0x2c /mnt/md0/miranda/openwrt/tmp/cca1aXTG.ltrans0.ltrans.o
                0x0040f459                clamp_pollexp_and_set_MAXSTRAT.lto_priv.0
 .text.adjust_poll
                0x0040f484       0x80 /mnt/md0/miranda/openwrt/tmp/cca1aXTG.ltrans1.ltrans.o
 .text.set_flags
                0x0040f504       0x24 /mnt/md0/miranda/openwrt/tmp/cca1aXTG.ltrans1.ltrans.o
 .text.find_by_index
                0x0040f528       0x20 /mnt/md0/miranda/openwrt/tmp/cca1aXTG.ltrans1.ltrans.o
 .text.poll_interval
                0x0040f548       0x30 /mnt/md0/miranda/openwrt/tmp/cca1aXTG.ltrans1.ltrans.o
 .text.iproute_reset_filter
                0x0040f578       0x24 /mnt/md0/miranda/openwrt/tmp/cca1aXTG.ltrans1.ltrans.o
 .text.parse_rtattr
                0x0040f59c       0x54 /mnt/md0/miranda/openwrt/tmp/cca1aXTG.ltrans1.ltrans.o
 .text.recv_and_process_client_pkt
                0x0040f5f0      0x240 /mnt/md0/miranda/openwrt/tmp/cca1aXTG.ltrans1.ltrans.o
 .text.kw_lookup
                0x0040f830       0x58 /mnt/md0/miranda/openwrt/tmp/cca1aXTG.ltrans1.ltrans.o
 .text.print_stats_and_exit.lto_priv.0
                0x0040f888       0xb8 /mnt/md0/miranda/openwrt/tmp/cca1aXTG.ltrans1.ltrans.o
                0x0040f889                print_stats_and_exit.lto_priv.0
 .text.sendping4.lto_priv.0
                0x0040f940       0x50 /mnt/md0/miranda/openwrt/tmp/cca1aXTG.ltrans1.ltrans.o
                0x0040f941                sendping4.lto_priv.0
 .text.sendping6.lto_priv.0
                0x0040f990       0x44 /mnt/md0/miranda/openwrt/tmp/cca1aXTG.ltrans1.ltrans.o
                0x0040f991                sendping6.lto_priv.0
 .text.ping_main
                0x0040f9d4        0x8 /mnt/md0/miranda/openwrt/tmp/cca1aXTG.ltrans1.ltrans.o
                0x0040f9d5                ping_main
 .text.ping6_main
                0x0040f9dc        0xc /mnt/md0/miranda/openwrt/tmp/cca1aXTG.ltrans1.ltrans.o
                0x0040f9dd                ping6_main
 .text.next_arg
                0x0040f9e8       0x18 /mnt/md0/miranda/openwrt/tmp/cca1aXTG.ltrans1.ltrans.o
 .text.duparg   0x0040fa00       0x14 /mnt/md0/miranda/openwrt/tmp/cca1aXTG.ltrans1.ltrans.o
 .text.INET_setroute
                0x0040fa14      0x2d4 /mnt/md0/miranda/openwrt/tmp/cca1aXTG.ltrans1.ltrans.o
 .text.INET6_setroute
                0x0040fce8      0x1cc /mnt/md0/miranda/openwrt/tmp/cca1aXTG.ltrans1.ltrans.o
 .text.get_hz   0x0040feb4       0x58 /mnt/md0/miranda/openwrt/tmp/cca1aXTG.ltrans1.ltrans.o
 .text.INET6_displayroutes
                0x0040ff0c      0x198 /mnt/md0/miranda/openwrt/tmp/cca1aXTG.ltrans1.ltrans.o
 .text.hexdump_if_verbose
                0x004100a4       0xe0 /mnt/md0/miranda/openwrt/tmp/cca1aXTG.ltrans1.ltrans.o
 .text.traceroute_init
                0x00410184      0x354 /mnt/md0/miranda/openwrt/tmp/cca1aXTG.ltrans1.ltrans.o
 .text.inet_addr_match
                0x004104d8       0x54 /mnt/md0/miranda/openwrt/tmp/cca1aXTG.ltrans1.ltrans.o
 .text.common_traceroute_main
                0x0041052c      0x554 /mnt/md0/miranda/openwrt/tmp/cca1aXTG.ltrans1.ltrans.o
 .text.traceroute_main
                0x00410a80        0xc /mnt/md0/miranda/openwrt/tmp/cca1aXTG.ltrans1.ltrans.o
                0x00410a81                traceroute_main
 .text.traceroute6_main
                0x00410a8c       0x14 /mnt/md0/miranda/openwrt/tmp/cca1aXTG.ltrans1.ltrans.o
                0x00410a8d                traceroute6_main
 .text.get_ctl_fd
                0x00410aa0       0x2c /mnt/md0/miranda/openwrt/tmp/cca1aXTG.ltrans1.ltrans.o
 .text.rtnl_rtntype_n2a
                0x00410acc       0x94 /mnt/md0/miranda/openwrt/tmp/cca1aXTG.ltrans1.ltrans.o
 .text.rtnl_rtntype_a2n
                0x00410b60       0x54 /mnt/md0/miranda/openwrt/tmp/cca1aXTG.ltrans1.ltrans.o
 .text.rtnl_send_check
                0x00410bb4       0x88 /mnt/md0/miranda/openwrt/tmp/cca1aXTG.ltrans1.ltrans.o
 .text.flush_update.lto_priv.0
                0x00410c3c       0x30 /mnt/md0/miranda/openwrt/tmp/cca1aXTG.ltrans1.ltrans.o
 .text.flush_update.lto_priv.1
                0x00410c6c       0x30 /mnt/md0/miranda/openwrt/tmp/cca1aXTG.ltrans1.ltrans.o
 .text.flush_update.lto_priv.2
                0x00410c9c       0x30 /mnt/md0/miranda/openwrt/tmp/cca1aXTG.ltrans1.ltrans.o
 .text.xrtnl_open
                0x00410ccc       0x44 /mnt/md0/miranda/openwrt/tmp/cca1aXTG.ltrans1.ltrans.o
 .text.rtnl_talk
                0x00410d10      0x1dc /mnt/md0/miranda/openwrt/tmp/cca1aXTG.ltrans1.ltrans.o
 .text.ll_remember_index
                0x00410eec       0xdc /mnt/md0/miranda/openwrt/tmp/cca1aXTG.ltrans1.ltrans.o
                0x00410eed                ll_remember_index
 .text.store_nlmsg
                0x00410fc8       0x50 /mnt/md0/miranda/openwrt/tmp/cca1aXTG.ltrans1.ltrans.o
 .text.ll_idx_n2a
                0x00411018       0x30 /mnt/md0/miranda/openwrt/tmp/cca1aXTG.ltrans1.ltrans.o
 .text.print_linkinfo
                0x00411048      0x334 /mnt/md0/miranda/openwrt/tmp/cca1aXTG.ltrans1.ltrans.o
 .text.xll_name_to_index
                0x0041137c       0x1c /mnt/md0/miranda/openwrt/tmp/cca1aXTG.ltrans1.ltrans.o
 .text.set_master
                0x00411398       0x68 /mnt/md0/miranda/openwrt/tmp/cca1aXTG.ltrans1.ltrans.o
 .text.set_netns
                0x00411400       0x68 /mnt/md0/miranda/openwrt/tmp/cca1aXTG.ltrans1.ltrans.o
 .text.rtnl_a2n
                0x00411468       0x68 /mnt/md0/miranda/openwrt/tmp/cca1aXTG.ltrans1.ltrans.o
 .text.rtnl_tab_initialize
                0x004114d0       0x7c /mnt/md0/miranda/openwrt/tmp/cca1aXTG.ltrans1.ltrans.o
 .text.rtnl_rtprot_initialize
                0x0041154c       0x58 /mnt/md0/miranda/openwrt/tmp/cca1aXTG.ltrans1.ltrans.o
 .text.rtnl_rtscope_initialize
                0x004115a4       0x5c /mnt/md0/miranda/openwrt/tmp/cca1aXTG.ltrans1.ltrans.o
 .text.rtnl_rtscope_a2n
                0x00411600       0x20 /mnt/md0/miranda/openwrt/tmp/cca1aXTG.ltrans1.ltrans.o
 .text.rtnl_rtrealm_initialize
                0x00411620       0x34 /mnt/md0/miranda/openwrt/tmp/cca1aXTG.ltrans1.ltrans.o
 .text.rtnl_rtrealm_n2a
                0x00411654       0x30 /mnt/md0/miranda/openwrt/tmp/cca1aXTG.ltrans1.ltrans.o
 .text.rtnl_rtdsfield_initialize
                0x00411684       0x34 /mnt/md0/miranda/openwrt/tmp/cca1aXTG.ltrans1.ltrans.o
 .text.rtnl_rttable_initialize
                0x004116b8       0x50 /mnt/md0/miranda/openwrt/tmp/cca1aXTG.ltrans1.ltrans.o
 .text.rtnl_rttable_n2a
                0x00411708       0x30 /mnt/md0/miranda/openwrt/tmp/cca1aXTG.ltrans1.ltrans.o
 .text.rtnl_rttable_a2n
                0x00411738       0x20 /mnt/md0/miranda/openwrt/tmp/cca1aXTG.ltrans1.ltrans.o
 .text.rt_addr_n2a
                0x00411758       0x34 /mnt/md0/miranda/openwrt/tmp/cca1aXTG.ltrans1.ltrans.o
 .text.print_addrinfo
                0x0041178c      0x3cc /mnt/md0/miranda/openwrt/tmp/cca1aXTG.ltrans1.ltrans.o
 .text.print_neigh
                0x00411b58      0x310 /mnt/md0/miranda/openwrt/tmp/cca1aXTG.ltrans1.ltrans.o
 .text.print_route
                0x00411e68      0x548 /mnt/md0/miranda/openwrt/tmp/cca1aXTG.ltrans1.ltrans.o
 .text.print_rule
                0x004123b0      0x23c /mnt/md0/miranda/openwrt/tmp/cca1aXTG.ltrans1.ltrans.o
 .text.unpack_tail.lto_priv.0
                0x004125ec       0xc8 /mnt/md0/miranda/openwrt/tmp/cca1aXTG.ltrans1.ltrans.o
                0x004125ed                unpack_tail.lto_priv.0
 .text.bb_displayroutes
                0x004126b4      0x174 /mnt/md0/miranda/openwrt/tmp/cca1aXTG.ltrans1.ltrans.o
                0x004126b5                bb_displayroutes
 .text.route_main
                0x00412828       0xe4 /mnt/md0/miranda/openwrt/tmp/cca1aXTG.ltrans1.ltrans.o
                0x00412829                route_main
 .text.xrtnl_wilddump_request
                0x0041290c       0x34 /mnt/md0/miranda/openwrt/tmp/cca1aXTG.ltrans1.ltrans.o
                0x0041290d                xrtnl_wilddump_request
 .text.xrtnl_dump_filter
                0x00412940      0x140 /mnt/md0/miranda/openwrt/tmp/cca1aXTG.ltrans1.ltrans.o
                0x00412941                xrtnl_dump_filter
 .text.get_addr_1
                0x00412a80       0xc8 /mnt/md0/miranda/openwrt/tmp/cca1aXTG.ltrans1.ltrans.o
                0x00412a81                get_addr_1
 .text.ll_addr_a2n
                0x00412b48       0xa8 /mnt/md0/miranda/openwrt/tmp/cca1aXTG.ltrans1.ltrans.o
 .text.get_prefix
                0x00412bf0      0x114 /mnt/md0/miranda/openwrt/tmp/cca1aXTG.ltrans1.ltrans.o
 .text.ipneigh_list_or_flush
                0x00412d04      0x270 /mnt/md0/miranda/openwrt/tmp/cca1aXTG.ltrans1.ltrans.o
 .text.iproute_get
                0x00412f74      0x254 /mnt/md0/miranda/openwrt/tmp/cca1aXTG.ltrans1.ltrans.o
 .text.invarg_1_to_2
                0x004131c8       0x14 /mnt/md0/miranda/openwrt/tmp/cca1aXTG.ltrans1.ltrans.o
                0x004131c9                invarg_1_to_2
 .text.ipaddr_list_or_flush
                0x004131dc      0x358 /mnt/md0/miranda/openwrt/tmp/cca1aXTG.ltrans1.ltrans.o
 .text.do_ipneigh
                0x00413534       0x3c /mnt/md0/miranda/openwrt/tmp/cca1aXTG.ltrans1.ltrans.o
                0x00413535                do_ipneigh
 .text.iproute_list_or_flush
                0x00413570      0x398 /mnt/md0/miranda/openwrt/tmp/cca1aXTG.ltrans1.ltrans.o
 .text.get_unsigned
                0x00413908       0x24 /mnt/md0/miranda/openwrt/tmp/cca1aXTG.ltrans1.ltrans.o
 .text.ipaddr_modify
                0x0041392c      0x4f8 /mnt/md0/miranda/openwrt/tmp/cca1aXTG.ltrans1.ltrans.o
 .text.do_ipaddr
                0x00413e24       0x6c /mnt/md0/miranda/openwrt/tmp/cca1aXTG.ltrans1.ltrans.o
                0x00413e25                do_ipaddr
 .text.do_add_or_delete
                0x00413e90      0x41c /mnt/md0/miranda/openwrt/tmp/cca1aXTG.ltrans1.ltrans.o
 .text.iprule_modify
                0x004142ac      0x36c /mnt/md0/miranda/openwrt/tmp/cca1aXTG.ltrans1.ltrans.o
 .text.do_iprule
                0x00414618       0x74 /mnt/md0/miranda/openwrt/tmp/cca1aXTG.ltrans1.ltrans.o
                0x00414619                do_iprule
 .text.do_iplink
                0x0041468c      0x474 /mnt/md0/miranda/openwrt/tmp/cca1aXTG.ltrans1.ltrans.o
                0x0041468d                do_iplink
 .text.iproute_modify
                0x00414b00      0x3c0 /mnt/md0/miranda/openwrt/tmp/cca1aXTG.ltrans1.ltrans.o
 .text.do_iproute
                0x00414ec0       0xa8 /mnt/md0/miranda/openwrt/tmp/cca1aXTG.ltrans1.ltrans.o
                0x00414ec1                do_iproute
 .text.mem_sort
                0x00414f68       0x1c /mnt/md0/miranda/openwrt/tmp/cca1aXTG.ltrans2.ltrans.o
 .text.pcpu_sort
                0x00414f84        0x8 /mnt/md0/miranda/openwrt/tmp/cca1aXTG.ltrans2.ltrans.o
 .text.time_sort
                0x00414f8c       0x1c /mnt/md0/miranda/openwrt/tmp/cca1aXTG.ltrans2.ltrans.o
 .text.mult_lvl_cmp
                0x00414fa8       0x34 /mnt/md0/miranda/openwrt/tmp/cca1aXTG.ltrans2.ltrans.o
 .text.prefix.lto_priv.0
                0x00414fdc       0x18 /mnt/md0/miranda/openwrt/tmp/cca1aXTG.ltrans2.ltrans.o
                0x00414fdd                prefix.lto_priv.0
 .text.set_curjob
                0x00414ff4       0x40 /mnt/md0/miranda/openwrt/tmp/cca1aXTG.ltrans2.ltrans.o
 .text.getstatus
                0x00415034       0x60 /mnt/md0/miranda/openwrt/tmp/cca1aXTG.ltrans2.ltrans.o
 .text.skiploop
                0x00415094       0x28 /mnt/md0/miranda/openwrt/tmp/cca1aXTG.ltrans2.ltrans.o
 .text.clearmems
                0x004150bc       0x38 /mnt/md0/miranda/openwrt/tmp/cca1aXTG.ltrans2.ltrans.o
 .text.freealias
                0x004150f4       0x30 /mnt/md0/miranda/openwrt/tmp/cca1aXTG.ltrans2.ltrans.o
 .text.optitem_unset_env_and_free
                0x00415124       0x28 /mnt/md0/miranda/openwrt/tmp/cca1aXTG.ltrans2.ltrans.o
 .text.putenvp  0x0041514c       0x24 /mnt/md0/miranda/openwrt/tmp/cca1aXTG.ltrans2.ltrans.o
 .text.udhcp_scan_options
                0x00415170       0xa0 /mnt/md0/miranda/openwrt/tmp/cca1aXTG.ltrans2.ltrans.o
 .text.udhcp_get_option
                0x00415210       0x2c /mnt/md0/miranda/openwrt/tmp/cca1aXTG.ltrans2.ltrans.o
 .text.udhcp_get_option32
                0x0041523c       0x18 /mnt/md0/miranda/openwrt/tmp/cca1aXTG.ltrans2.ltrans.o
 .text.d4_recv_raw_packet
                0x00415254      0x1a0 /mnt/md0/miranda/openwrt/tmp/cca1aXTG.ltrans2.ltrans.o
 .text.change_listen_mode
                0x004153f4      0x134 /mnt/md0/miranda/openwrt/tmp/cca1aXTG.ltrans2.ltrans.o
 .text.calcsize
                0x00415528      0x11c /mnt/md0/miranda/openwrt/tmp/cca1aXTG.ltrans2.ltrans.o
 .text.nodeckstrdup
                0x00415644       0x30 /mnt/md0/miranda/openwrt/tmp/cca1aXTG.ltrans2.ltrans.o
 .text.copynode
                0x00415674      0x100 /mnt/md0/miranda/openwrt/tmp/cca1aXTG.ltrans2.ltrans.o
 .text.copynodelist
                0x00415774       0x38 /mnt/md0/miranda/openwrt/tmp/cca1aXTG.ltrans2.ltrans.o
 .text.client_background
                0x004157ac       0x2c /mnt/md0/miranda/openwrt/tmp/cca1aXTG.ltrans2.ltrans.o
 .text.signal_handler.lto_priv.0
                0x004157d8       0x34 /mnt/md0/miranda/openwrt/tmp/cca1aXTG.ltrans2.ltrans.o
 .text.udhcp_str2nip
                0x0041580c       0x48 /mnt/md0/miranda/openwrt/tmp/cca1aXTG.ltrans2.ltrans.o
 .text.read_cpu_jiffy
                0x00415854       0xf4 /mnt/md0/miranda/openwrt/tmp/cca1aXTG.ltrans2.ltrans.o
 .text.parse_meminfo.lto_priv.0
                0x00415948       0x80 /mnt/md0/miranda/openwrt/tmp/cca1aXTG.ltrans2.ltrans.o
 .text.free_main
                0x004159c8      0x164 /mnt/md0/miranda/openwrt/tmp/cca1aXTG.ltrans2.ltrans.o
                0x004159c9                free_main
 .text.kill_main
                0x00415b2c      0x260 /mnt/md0/miranda/openwrt/tmp/cca1aXTG.ltrans2.ltrans.o
                0x00415b2d                kill_main
 .text.pgrep_main
                0x00415d8c      0x230 /mnt/md0/miranda/openwrt/tmp/cca1aXTG.ltrans2.ltrans.o
                0x00415d8d                pgrep_main
 .text.pidof_main
                0x00415fbc       0x98 /mnt/md0/miranda/openwrt/tmp/cca1aXTG.ltrans2.ltrans.o
                0x00415fbd                pidof_main
 .text.ps_main  0x00416054       0xf4 /mnt/md0/miranda/openwrt/tmp/cca1aXTG.ltrans2.ltrans.o
                0x00416055                ps_main
 .text.sysctl_dots_to_slashes
                0x00416148       0x8c /mnt/md0/miranda/openwrt/tmp/cca1aXTG.ltrans2.ltrans.o
 .text.sysctl_act_on_setting
                0x004161d4      0x18c /mnt/md0/miranda/openwrt/tmp/cca1aXTG.ltrans2.ltrans.o
 .text.sysctl_act_recursive
                0x00416360       0xa0 /mnt/md0/miranda/openwrt/tmp/cca1aXTG.ltrans2.ltrans.o
 .text.sysctl_main
                0x00416400      0x110 /mnt/md0/miranda/openwrt/tmp/cca1aXTG.ltrans2.ltrans.o
                0x00416401                sysctl_main
 .text.do_stats
                0x00416510       0xe4 /mnt/md0/miranda/openwrt/tmp/cca1aXTG.ltrans2.ltrans.o
 .text.display_process_list
                0x004165f4      0x3f8 /mnt/md0/miranda/openwrt/tmp/cca1aXTG.ltrans2.ltrans.o
 .text.top_main
                0x004169ec      0x208 /mnt/md0/miranda/openwrt/tmp/cca1aXTG.ltrans2.ltrans.o
                0x004169ed                top_main
 .text.uptime_main
                0x00416bf4      0x134 /mnt/md0/miranda/openwrt/tmp/cca1aXTG.ltrans2.ltrans.o
                0x00416bf5                uptime_main
 .text.ignoresig
                0x00416d28       0x2c /mnt/md0/miranda/openwrt/tmp/cca1aXTG.ltrans2.ltrans.o
 .text.msort    0x00416d54       0x70 /mnt/md0/miranda/openwrt/tmp/cca1aXTG.ltrans2.ltrans.o
 .text.pstrcmp  0x00416dc4       0x10 /mnt/md0/miranda/openwrt/tmp/cca1aXTG.ltrans2.ltrans.o
 .text.dup_CLOEXEC
                0x00416dd4       0x2c /mnt/md0/miranda/openwrt/tmp/cca1aXTG.ltrans2.ltrans.o
 .text.scanleft
                0x00416e00       0x44 /mnt/md0/miranda/openwrt/tmp/cca1aXTG.ltrans2.ltrans.o
 .text.scanright
                0x00416e44       0xb4 /mnt/md0/miranda/openwrt/tmp/cca1aXTG.ltrans2.ltrans.o
 .text.tryexec  0x00416ef8       0x44 /mnt/md0/miranda/openwrt/tmp/cca1aXTG.ltrans2.ltrans.o
 .text.dotrap   0x00416f3c       0xcc /mnt/md0/miranda/openwrt/tmp/cca1aXTG.ltrans2.ltrans.o
 .text.sprint_nip.lto_priv.0
                0x00417008       0x24 /mnt/md0/miranda/openwrt/tmp/cca1aXTG.ltrans2.ltrans.o
                0x00417009                sprint_nip.lto_priv.0
 .text.d4_run_script
                0x0041702c      0x294 /mnt/md0/miranda/openwrt/tmp/cca1aXTG.ltrans2.ltrans.o
 .text.d4_run_script_deconfig
                0x004172c0       0x14 /mnt/md0/miranda/openwrt/tmp/cca1aXTG.ltrans2.ltrans.o
 .text.raw_bcast_from_client_data_ifindex.lto_priv.0
                0x004172d4       0x18 /mnt/md0/miranda/openwrt/tmp/cca1aXTG.ltrans2.ltrans.o
                0x004172d5                raw_bcast_from_client_data_ifindex.lto_priv.0
 .text.dname_dec
                0x004172ec       0xf4 /mnt/md0/miranda/openwrt/tmp/cca1aXTG.ltrans2.ltrans.o
                0x004172ed                dname_dec
 .text.udhcp_end_option
                0x004173e0       0x18 /mnt/md0/miranda/openwrt/tmp/cca1aXTG.ltrans2.ltrans.o
                0x004173e1                udhcp_end_option
 .text.bcast_or_ucast
                0x004173f8      0x144 /mnt/md0/miranda/openwrt/tmp/cca1aXTG.ltrans2.ltrans.o
 .text.udhcp_add_binary_option
                0x0041753c       0x54 /mnt/md0/miranda/openwrt/tmp/cca1aXTG.ltrans2.ltrans.o
 .text.udhcp_add_simple_option
                0x00417590       0x78 /mnt/md0/miranda/openwrt/tmp/cca1aXTG.ltrans2.ltrans.o
                0x00417591                udhcp_add_simple_option
 .text.init_packet.lto_priv.0
                0x00417608       0xac /mnt/md0/miranda/openwrt/tmp/cca1aXTG.ltrans2.ltrans.o
                0x00417609                init_packet.lto_priv.0
 .text.add_client_options.lto_priv.0
                0x004176b4       0xac /mnt/md0/miranda/openwrt/tmp/cca1aXTG.ltrans2.ltrans.o
                0x004176b5                add_client_options.lto_priv.0
 .text.send_renew
                0x00417760       0x64 /mnt/md0/miranda/openwrt/tmp/cca1aXTG.ltrans2.ltrans.o
 .text.udhcp_find_option
                0x004177c4       0x1c /mnt/md0/miranda/openwrt/tmp/cca1aXTG.ltrans2.ltrans.o
                0x004177c5                udhcp_find_option
 .text.perform_release
                0x004177e0       0xd4 /mnt/md0/miranda/openwrt/tmp/cca1aXTG.ltrans2.ltrans.o
 .text.udhcpc_main
                0x004178b4      0xb14 /mnt/md0/miranda/openwrt/tmp/cca1aXTG.ltrans2.ltrans.o
                0x004178b5                udhcpc_main
 .text.isdigit_str9.lto_priv.0
                0x004183c8       0x20 /mnt/md0/miranda/openwrt/tmp/cca1aXTG.ltrans2.ltrans.o
                0x004183c9                isdigit_str9.lto_priv.0
 .text.raise_exception.lto_priv.0
                0x004183e8       0x20 /mnt/md0/miranda/openwrt/tmp/cca1aXTG.ltrans2.ltrans.o
                0x004183e9                raise_exception.lto_priv.0
 .text.raise_interrupt.lto_priv.0
                0x00418408       0x48 /mnt/md0/miranda/openwrt/tmp/cca1aXTG.ltrans2.ltrans.o
                0x00418409                raise_interrupt.lto_priv.0
 .text.signal_handler.lto_priv.1
                0x00418450       0x60 /mnt/md0/miranda/openwrt/tmp/cca1aXTG.ltrans2.ltrans.o
 .text.int_on.lto_priv.0
                0x004184b0       0x24 /mnt/md0/miranda/openwrt/tmp/cca1aXTG.ltrans2.ltrans.o
                0x004184b1                int_on.lto_priv.0
 .text.fmtstr   0x004184d4       0x30 /mnt/md0/miranda/openwrt/tmp/cca1aXTG.ltrans2.ltrans.o
 .text.sprint_status48
                0x00418504       0x94 /mnt/md0/miranda/openwrt/tmp/cca1aXTG.ltrans2.ltrans.o
 .text.out1str  0x00418598       0x28 /mnt/md0/miranda/openwrt/tmp/cca1aXTG.ltrans2.ltrans.o
 .text.freejob  0x004185c0       0x64 /mnt/md0/miranda/openwrt/tmp/cca1aXTG.ltrans2.ltrans.o
 .text.recordregion
                0x00418624       0x48 /mnt/md0/miranda/openwrt/tmp/cca1aXTG.ltrans2.ltrans.o
 .text.removerecordregions
                0x0041866c       0xac /mnt/md0/miranda/openwrt/tmp/cca1aXTG.ltrans2.ltrans.o
 .text.clearcmdentry
                0x00418718       0x6c /mnt/md0/miranda/openwrt/tmp/cca1aXTG.ltrans2.ltrans.o
 .text.changepath.lto_priv.0
                0x00418784       0x40 /mnt/md0/miranda/openwrt/tmp/cca1aXTG.ltrans2.ltrans.o
                0x00418785                changepath.lto_priv.0
 .text.force_int_on.lto_priv.0
                0x004187c4       0x20 /mnt/md0/miranda/openwrt/tmp/cca1aXTG.ltrans2.ltrans.o
                0x004187c5                force_int_on.lto_priv.0
 .text.flush_stdout_stderr.lto_priv.0
                0x004187e4       0x20 /mnt/md0/miranda/openwrt/tmp/cca1aXTG.ltrans2.ltrans.o
                0x004187e5                flush_stdout_stderr.lto_priv.0
 .text.newline_and_flush.lto_priv.0
                0x00418804       0x2c /mnt/md0/miranda/openwrt/tmp/cca1aXTG.ltrans2.ltrans.o
                0x00418805                newline_and_flush.lto_priv.0
 .text.showjob  0x00418830      0x17c /mnt/md0/miranda/openwrt/tmp/cca1aXTG.ltrans2.ltrans.o
 .text.out1fmt.lto_priv.0
                0x004189ac       0x28 /mnt/md0/miranda/openwrt/tmp/cca1aXTG.ltrans2.ltrans.o
                0x004189ad                out1fmt.lto_priv.0
 .text.out2str.lto_priv.0
                0x004189d4       0x2c /mnt/md0/miranda/openwrt/tmp/cca1aXTG.ltrans2.ltrans.o
                0x004189d5                out2str.lto_priv.0
 .text.dowait   0x00418a00      0x220 /mnt/md0/miranda/openwrt/tmp/cca1aXTG.ltrans2.ltrans.o
 .text.freefunc.lto_priv.0
                0x00418c20       0x1c /mnt/md0/miranda/openwrt/tmp/cca1aXTG.ltrans2.ltrans.o
                0x00418c21                freefunc.lto_priv.0
 .text.ash_vmsg.lto_priv.0
                0x00418c3c       0x78 /mnt/md0/miranda/openwrt/tmp/cca1aXTG.ltrans2.ltrans.o
                0x00418c3d                ash_vmsg.lto_priv.0
 .text.ash_msg_and_raise_error.lto_priv.0
                0x00418cb4       0x24 /mnt/md0/miranda/openwrt/tmp/cca1aXTG.ltrans2.ltrans.o
                0x00418cb5                ash_msg_and_raise_error.lto_priv.0
 .text.xtcsetpgrp
                0x00418cd8       0x1c /mnt/md0/miranda/openwrt/tmp/cca1aXTG.ltrans2.ltrans.o
 .text.xdup_CLOEXEC_and_close
                0x00418cf4       0x4c /mnt/md0/miranda/openwrt/tmp/cca1aXTG.ltrans2.ltrans.o
 .text.raise_error_syntax.lto_priv.0
                0x00418d40       0x24 /mnt/md0/miranda/openwrt/tmp/cca1aXTG.ltrans2.ltrans.o
                0x00418d41                raise_error_syntax.lto_priv.0
 .text.ash_msg.lto_priv.0
                0x00418d64       0x10 /mnt/md0/miranda/openwrt/tmp/cca1aXTG.ltrans2.ltrans.o
                0x00418d65                ash_msg.lto_priv.0
 .text.errmsg.lto_priv.0
                0x00418d74       0x18 /mnt/md0/miranda/openwrt/tmp/cca1aXTG.ltrans2.ltrans.o
                0x00418d75                errmsg.lto_priv.0
 .text.stalloc.lto_priv.0
                0x00418d8c       0x6c /mnt/md0/miranda/openwrt/tmp/cca1aXTG.ltrans2.ltrans.o
                0x00418d8d                stalloc.lto_priv.0
 .text.pushstackmark
                0x00418df8       0x24 /mnt/md0/miranda/openwrt/tmp/cca1aXTG.ltrans2.ltrans.o
 .text.growstackblock
                0x00418e1c       0xb8 /mnt/md0/miranda/openwrt/tmp/cca1aXTG.ltrans2.ltrans.o
 .text.stzalloc.lto_priv.0
                0x00418ed4       0x18 /mnt/md0/miranda/openwrt/tmp/cca1aXTG.ltrans2.ltrans.o
                0x00418ed5                stzalloc.lto_priv.0
 .text.sstrdup.lto_priv.0
                0x00418eec       0x34 /mnt/md0/miranda/openwrt/tmp/cca1aXTG.ltrans2.ltrans.o
                0x00418eed                sstrdup.lto_priv.0
 .text.addfname
                0x00418f20       0x24 /mnt/md0/miranda/openwrt/tmp/cca1aXTG.ltrans2.ltrans.o
 .text.expmeta  0x00418f44      0x218 /mnt/md0/miranda/openwrt/tmp/cca1aXTG.ltrans2.ltrans.o
 .text.setstackmark.lto_priv.0
                0x0041915c       0x30 /mnt/md0/miranda/openwrt/tmp/cca1aXTG.ltrans2.ltrans.o
                0x0041915d                setstackmark.lto_priv.0
 .text.popstackmark.lto_priv.0
                0x0041918c       0x48 /mnt/md0/miranda/openwrt/tmp/cca1aXTG.ltrans2.ltrans.o
                0x0041918d                popstackmark.lto_priv.0
 .text.growstackstr.lto_priv.0
                0x004191d4       0x1c /mnt/md0/miranda/openwrt/tmp/cca1aXTG.ltrans2.ltrans.o
                0x004191d5                growstackstr.lto_priv.0
 .text.growstackto.lto_priv.0
                0x004191f0       0x1c /mnt/md0/miranda/openwrt/tmp/cca1aXTG.ltrans2.ltrans.o
                0x004191f1                growstackto.lto_priv.0
 .text.makestrspace.lto_priv.0
                0x0041920c       0x1c /mnt/md0/miranda/openwrt/tmp/cca1aXTG.ltrans2.ltrans.o
                0x0041920d                makestrspace.lto_priv.0
 .text.stnputs  0x00419228       0x1c /mnt/md0/miranda/openwrt/tmp/cca1aXTG.ltrans2.ltrans.o
 .text.cmdputs  0x00419244      0x150 /mnt/md0/miranda/openwrt/tmp/cca1aXTG.ltrans2.ltrans.o
 .text.cmdtxt   0x00419394      0x290 /mnt/md0/miranda/openwrt/tmp/cca1aXTG.ltrans2.ltrans.o
 .text.memtodest
                0x00419624       0x9c /mnt/md0/miranda/openwrt/tmp/cca1aXTG.ltrans2.ltrans.o
 .text.strtodest
                0x004196c0       0x1c /mnt/md0/miranda/openwrt/tmp/cca1aXTG.ltrans2.ltrans.o
 .text.cvtnum   0x004196dc       0x24 /mnt/md0/miranda/openwrt/tmp/cca1aXTG.ltrans2.ltrans.o
 .text.stack_putstr.lto_priv.0
                0x00419700       0x18 /mnt/md0/miranda/openwrt/tmp/cca1aXTG.ltrans2.ltrans.o
                0x00419701                stack_putstr.lto_priv.0
 .text._STPUTC.lto_priv.0
                0x00419718       0x24 /mnt/md0/miranda/openwrt/tmp/cca1aXTG.ltrans2.ltrans.o
                0x00419719                _STPUTC.lto_priv.0
 .text.is_number.lto_priv.0
                0x0041973c       0x18 /mnt/md0/miranda/openwrt/tmp/cca1aXTG.ltrans2.ltrans.o
                0x0041973d                is_number.lto_priv.0
 .text.getjob   0x00419754       0xf4 /mnt/md0/miranda/openwrt/tmp/cca1aXTG.ltrans2.ltrans.o
 .text.killcmd.lto_priv.0
                0x00419848       0xe8 /mnt/md0/miranda/openwrt/tmp/cca1aXTG.ltrans2.ltrans.o
                0x00419849                killcmd.lto_priv.0
 .text.number.lto_priv.0
                0x00419930       0x20 /mnt/md0/miranda/openwrt/tmp/cca1aXTG.ltrans2.ltrans.o
                0x00419931                number.lto_priv.0
 .text.getoptsreset.lto_priv.0
                0x00419950       0x2c /mnt/md0/miranda/openwrt/tmp/cca1aXTG.ltrans2.ltrans.o
                0x00419951                getoptsreset.lto_priv.0
 .text.single_quote.lto_priv.0
                0x0041997c       0x8c /mnt/md0/miranda/openwrt/tmp/cca1aXTG.ltrans2.ltrans.o
                0x0041997d                single_quote.lto_priv.0
 .text.printalias
                0x00419a08       0x1c /mnt/md0/miranda/openwrt/tmp/cca1aXTG.ltrans2.ltrans.o
 .text.maybe_single_quote.lto_priv.0
                0x00419a24       0x34 /mnt/md0/miranda/openwrt/tmp/cca1aXTG.ltrans2.ltrans.o
                0x00419a25                maybe_single_quote.lto_priv.0
 .text.nextopt.lto_priv.0
                0x00419a58       0x90 /mnt/md0/miranda/openwrt/tmp/cca1aXTG.ltrans2.ltrans.o
                0x00419a59                nextopt.lto_priv.0
 .text.cdopt    0x00419ae8       0x28 /mnt/md0/miranda/openwrt/tmp/cca1aXTG.ltrans2.ltrans.o
 .text.waitcmd.lto_priv.0
                0x00419b10      0x110 /mnt/md0/miranda/openwrt/tmp/cca1aXTG.ltrans2.ltrans.o
                0x00419b11                waitcmd.lto_priv.0
 .text.freeparam.lto_priv.0
                0x00419c20       0x24 /mnt/md0/miranda/openwrt/tmp/cca1aXTG.ltrans2.ltrans.o
                0x00419c21                freeparam.lto_priv.0
 .text.varcmp.lto_priv.0
                0x00419c44       0x24 /mnt/md0/miranda/openwrt/tmp/cca1aXTG.ltrans2.ltrans.o
                0x00419c45                varcmp.lto_priv.0
 .text.vpcmp.lto_priv.0
                0x00419c68       0x10 /mnt/md0/miranda/openwrt/tmp/cca1aXTG.ltrans2.ltrans.o
                0x00419c69                vpcmp.lto_priv.0
 .text.hashvar.lto_priv.0
                0x00419c78       0x2c /mnt/md0/miranda/openwrt/tmp/cca1aXTG.ltrans2.ltrans.o
                0x00419c79                hashvar.lto_priv.0
 .text.findvar.lto_priv.0
                0x00419ca4       0x20 /mnt/md0/miranda/openwrt/tmp/cca1aXTG.ltrans2.ltrans.o
                0x00419ca5                findvar.lto_priv.0
 .text.lookupvar.lto_priv.0
                0x00419cc4       0x88 /mnt/md0/miranda/openwrt/tmp/cca1aXTG.ltrans2.ltrans.o
                0x00419cc5                lookupvar.lto_priv.0
 .text.setvareq.lto_priv.0
                0x00419d4c      0x120 /mnt/md0/miranda/openwrt/tmp/cca1aXTG.ltrans2.ltrans.o
                0x00419d4d                setvareq.lto_priv.0
 .text.setvar.lto_priv.0
                0x00419e6c       0xa8 /mnt/md0/miranda/openwrt/tmp/cca1aXTG.ltrans2.ltrans.o
                0x00419e6d                setvar.lto_priv.0
 .text.setvar0.lto_priv.0
                0x00419f14        0xc /mnt/md0/miranda/openwrt/tmp/cca1aXTG.ltrans2.ltrans.o
                0x00419f15                setvar0.lto_priv.0
 .text.unsetvar.lto_priv.0
                0x00419f20       0x10 /mnt/md0/miranda/openwrt/tmp/cca1aXTG.ltrans2.ltrans.o
                0x00419f21                unsetvar.lto_priv.0
 .text.padvance.lto_priv.0
                0x00419f30       0xd8 /mnt/md0/miranda/openwrt/tmp/cca1aXTG.ltrans2.ltrans.o
                0x00419f31                padvance.lto_priv.0
 .text.setprompt_if.lto_priv.0
                0x0041a008       0x74 /mnt/md0/miranda/openwrt/tmp/cca1aXTG.ltrans2.ltrans.o
                0x0041a009                setprompt_if.lto_priv.0
 .text.setpwd.lto_priv.0
                0x0041a07c       0xa4 /mnt/md0/miranda/openwrt/tmp/cca1aXTG.ltrans2.ltrans.o
                0x0041a07d                setpwd.lto_priv.0
 .text.cdcmd.lto_priv.0
                0x0041a120      0x27c /mnt/md0/miranda/openwrt/tmp/cca1aXTG.ltrans2.ltrans.o
                0x0041a121                cdcmd.lto_priv.0
 .text.pwdcmd.lto_priv.0
                0x0041a39c       0x38 /mnt/md0/miranda/openwrt/tmp/cca1aXTG.ltrans2.ltrans.o
                0x0041a39d                pwdcmd.lto_priv.0
 .text.__lookupalias.lto_priv.0
                0x0041a3d4       0x40 /mnt/md0/miranda/openwrt/tmp/cca1aXTG.ltrans2.ltrans.o
                0x0041a3d5                __lookupalias.lto_priv.0
 .text.aliascmd.lto_priv.0
                0x0041a414       0xe8 /mnt/md0/miranda/openwrt/tmp/cca1aXTG.ltrans2.ltrans.o
                0x0041a415                aliascmd.lto_priv.0
 .text.unalias.lto_priv.0
                0x0041a4fc       0x34 /mnt/md0/miranda/openwrt/tmp/cca1aXTG.ltrans2.ltrans.o
                0x0041a4fd                unalias.lto_priv.0
 .text.unaliascmd.lto_priv.0
                0x0041a530       0x9c /mnt/md0/miranda/openwrt/tmp/cca1aXTG.ltrans2.ltrans.o
                0x0041a531                unaliascmd.lto_priv.0
 .text.setsignal.lto_priv.0
                0x0041a5cc      0x11c /mnt/md0/miranda/openwrt/tmp/cca1aXTG.ltrans2.ltrans.o
                0x0041a5cd                setsignal.lto_priv.0
 .text.forkchild
                0x0041a6e8      0x1e4 /mnt/md0/miranda/openwrt/tmp/cca1aXTG.ltrans2.ltrans.o
 .text.setjobctl.lto_priv.0
                0x0041a8cc      0x130 /mnt/md0/miranda/openwrt/tmp/cca1aXTG.ltrans2.ltrans.o
                0x0041a8cd                setjobctl.lto_priv.0
 .text.showjobs.lto_priv.0
                0x0041a9fc       0x34 /mnt/md0/miranda/openwrt/tmp/cca1aXTG.ltrans2.ltrans.o
                0x0041a9fd                showjobs.lto_priv.0
 .text.jobscmd.lto_priv.0
                0x0041aa30       0x50 /mnt/md0/miranda/openwrt/tmp/cca1aXTG.ltrans2.ltrans.o
                0x0041aa31                jobscmd.lto_priv.0
 .text.makejob.lto_priv.0
                0x0041aa80      0x10c /mnt/md0/miranda/openwrt/tmp/cca1aXTG.ltrans2.ltrans.o
                0x0041aa81                makejob.lto_priv.0
 .text.forkshell.lto_priv.0
                0x0041ab8c       0xd0 /mnt/md0/miranda/openwrt/tmp/cca1aXTG.ltrans2.ltrans.o
                0x0041ab8d                forkshell.lto_priv.0
 .text.waitforjob.lto_priv.0
                0x0041ac5c       0x60 /mnt/md0/miranda/openwrt/tmp/cca1aXTG.ltrans2.ltrans.o
                0x0041ac5d                waitforjob.lto_priv.0
 .text.fg_bgcmd.lto_priv.0
                0x0041acbc      0x118 /mnt/md0/miranda/openwrt/tmp/cca1aXTG.ltrans2.ltrans.o
                0x0041acbd                fg_bgcmd.lto_priv.0
 .text.stoppedjobs.lto_priv.0
                0x0041add4       0x3c /mnt/md0/miranda/openwrt/tmp/cca1aXTG.ltrans2.ltrans.o
                0x0041add5                stoppedjobs.lto_priv.0
 .text.popredir.lto_priv.0
                0x0041ae10       0x80 /mnt/md0/miranda/openwrt/tmp/cca1aXTG.ltrans2.ltrans.o
                0x0041ae11                popredir.lto_priv.0
 .text.ash_arith.lto_priv.0
                0x0041ae90       0x48 /mnt/md0/miranda/openwrt/tmp/cca1aXTG.ltrans2.ltrans.o
                0x0041ae91                ash_arith.lto_priv.0
 .text.ifsfree.lto_priv.0
                0x0041aed8       0x38 /mnt/md0/miranda/openwrt/tmp/cca1aXTG.ltrans2.ltrans.o
                0x0041aed9                ifsfree.lto_priv.0
 .text.varvalue
                0x0041af10      0x1d8 /mnt/md0/miranda/openwrt/tmp/cca1aXTG.ltrans2.ltrans.o
 .text.rmescapes.lto_priv.0
                0x0041b0e8      0x13c /mnt/md0/miranda/openwrt/tmp/cca1aXTG.ltrans2.ltrans.o
                0x0041b0e9                rmescapes.lto_priv.0
 .text.shellexec.lto_priv.0
                0x0041b224       0xc8 /mnt/md0/miranda/openwrt/tmp/cca1aXTG.ltrans2.ltrans.o
                0x0041b225                shellexec.lto_priv.0
 .text.cmdlookup.lto_priv.0
                0x0041b2ec       0x80 /mnt/md0/miranda/openwrt/tmp/cca1aXTG.ltrans2.ltrans.o
                0x0041b2ed                cmdlookup.lto_priv.0
 .text.delete_cmd_entry.lto_priv.0
                0x0041b36c       0x3c /mnt/md0/miranda/openwrt/tmp/cca1aXTG.ltrans2.ltrans.o
                0x0041b36d                delete_cmd_entry.lto_priv.0
 .text.hashcmd.lto_priv.0
                0x0041b3a8      0x108 /mnt/md0/miranda/openwrt/tmp/cca1aXTG.ltrans2.ltrans.o
                0x0041b3a9                hashcmd.lto_priv.0
 .text.findkwd.lto_priv.0
                0x0041b4b0       0x1c /mnt/md0/miranda/openwrt/tmp/cca1aXTG.ltrans2.ltrans.o
                0x0041b4b1                findkwd.lto_priv.0
 .text.describe_command
                0x0041b4cc      0x124 /mnt/md0/miranda/openwrt/tmp/cca1aXTG.ltrans2.ltrans.o
 .text.typecmd.lto_priv.0
                0x0041b5f0       0x38 /mnt/md0/miranda/openwrt/tmp/cca1aXTG.ltrans2.ltrans.o
                0x0041b5f1                typecmd.lto_priv.0
 .text.commandcmd.lto_priv.0
                0x0041b628       0x44 /mnt/md0/miranda/openwrt/tmp/cca1aXTG.ltrans2.ltrans.o
                0x0041b629                commandcmd.lto_priv.0
 .text.expredir.lto_priv.0
                0x0041b66c       0xa0 /mnt/md0/miranda/openwrt/tmp/cca1aXTG.ltrans2.ltrans.o
                0x0041b66d                expredir.lto_priv.0
 .text.evaltree.lto_priv.0
                0x0041b70c      0x26c /mnt/md0/miranda/openwrt/tmp/cca1aXTG.ltrans2.ltrans.o
                0x0041b70d                evaltree.lto_priv.0
 .text.argstr   0x0041b978      0x538 /mnt/md0/miranda/openwrt/tmp/cca1aXTG.ltrans2.ltrans.o
 .text.evalvar  0x0041beb0      0x1c4 /mnt/md0/miranda/openwrt/tmp/cca1aXTG.ltrans2.ltrans.o
 .text.expandarg.lto_priv.0
                0x0041c074      0x2f8 /mnt/md0/miranda/openwrt/tmp/cca1aXTG.ltrans2.ltrans.o
                0x0041c075                expandarg.lto_priv.0
 .text.redirect.lto_priv.0
                0x0041c36c      0x38c /mnt/md0/miranda/openwrt/tmp/cca1aXTG.ltrans2.ltrans.o
                0x0041c36d                redirect.lto_priv.0
 .text.fill_arglist.lto_priv.0
                0x0041c6f8       0x28 /mnt/md0/miranda/openwrt/tmp/cca1aXTG.ltrans2.ltrans.o
                0x0041c6f9                fill_arglist.lto_priv.0
 .text.evalpipe
                0x0041c720      0x10c /mnt/md0/miranda/openwrt/tmp/cca1aXTG.ltrans2.ltrans.o
 .text.evalfor  0x0041c82c       0x88 /mnt/md0/miranda/openwrt/tmp/cca1aXTG.ltrans2.ltrans.o
 .text.evalloop
                0x0041c8b4       0x60 /mnt/md0/miranda/openwrt/tmp/cca1aXTG.ltrans2.ltrans.o
 .text.evalcase
                0x0041c914       0xc4 /mnt/md0/miranda/openwrt/tmp/cca1aXTG.ltrans2.ltrans.o
 .text.evalsubshell
                0x0041c9d8       0xa8 /mnt/md0/miranda/openwrt/tmp/cca1aXTG.ltrans2.ltrans.o
 .text.optschanged.lto_priv.0
                0x0041ca80       0xa4 /mnt/md0/miranda/openwrt/tmp/cca1aXTG.ltrans2.ltrans.o
                0x0041ca81                optschanged.lto_priv.0
 .text.falsecmd.lto_priv.0
                0x0041cb24        0x4 /mnt/md0/miranda/openwrt/tmp/cca1aXTG.ltrans3.ltrans.o
                0x0041cb25                falsecmd.lto_priv.0
 .text.truecmd.lto_priv.0
                0x0041cb28        0x4 /mnt/md0/miranda/openwrt/tmp/cca1aXTG.ltrans3.ltrans.o
                0x0041cb29                truecmd.lto_priv.0
 .text.get_builtin_name.lto_priv.0
                0x0041cb2c       0x18 /mnt/md0/miranda/openwrt/tmp/cca1aXTG.ltrans3.ltrans.o
                0x0041cb2d                get_builtin_name.lto_priv.0
 .text.bltincmd
                0x0041cb44        0xc /mnt/md0/miranda/openwrt/tmp/cca1aXTG.ltrans3.ltrans.o
 .text.nlnoprompt
                0x0041cb50       0x30 /mnt/md0/miranda/openwrt/tmp/cca1aXTG.ltrans3.ltrans.o
 .text.pungetc  0x0041cb80       0x10 /mnt/md0/miranda/openwrt/tmp/cca1aXTG.ltrans3.ltrans.o
 .text.unwindlocalvars
                0x0041cb90       0xc8 /mnt/md0/miranda/openwrt/tmp/cca1aXTG.ltrans3.ltrans.o
 .text.popstring
                0x0041cc58       0x90 /mnt/md0/miranda/openwrt/tmp/cca1aXTG.ltrans3.ltrans.o
 .text.evalfun  0x0041cce8      0x124 /mnt/md0/miranda/openwrt/tmp/cca1aXTG.ltrans3.ltrans.o
 .text.pushfile
                0x0041ce0c       0x20 /mnt/md0/miranda/openwrt/tmp/cca1aXTG.ltrans3.ltrans.o
 .text.mklocal  0x0041ce2c      0x100 /mnt/md0/miranda/openwrt/tmp/cca1aXTG.ltrans3.ltrans.o
 .text.localcmd
                0x0041cf2c       0x34 /mnt/md0/miranda/openwrt/tmp/cca1aXTG.ltrans3.ltrans.o
 .text.execcmd  0x0041cf60       0x6c /mnt/md0/miranda/openwrt/tmp/cca1aXTG.ltrans3.ltrans.o
 .text.returncmd
                0x0041cfcc       0x2c /mnt/md0/miranda/openwrt/tmp/cca1aXTG.ltrans3.ltrans.o
 .text.breakcmd
                0x0041cff8       0x58 /mnt/md0/miranda/openwrt/tmp/cca1aXTG.ltrans3.ltrans.o
 .text.shiftcmd
                0x0041d050       0x8c /mnt/md0/miranda/openwrt/tmp/cca1aXTG.ltrans3.ltrans.o
 .text.echocmd  0x0041d0dc        0xc /mnt/md0/miranda/openwrt/tmp/cca1aXTG.ltrans3.ltrans.o
 .text.printfcmd
                0x0041d0e8        0xc /mnt/md0/miranda/openwrt/tmp/cca1aXTG.ltrans3.ltrans.o
 .text.testcmd  0x0041d0f4        0xc /mnt/md0/miranda/openwrt/tmp/cca1aXTG.ltrans3.ltrans.o
 .text.pstrcmp1
                0x0041d100       0x10 /mnt/md0/miranda/openwrt/tmp/cca1aXTG.ltrans3.ltrans.o
 .text.set_discard_flag
                0x0041d110       0x6c /mnt/md0/miranda/openwrt/tmp/cca1aXTG.ltrans3.ltrans.o
 .text.pushstring
                0x0041d17c       0xa4 /mnt/md0/miranda/openwrt/tmp/cca1aXTG.ltrans3.ltrans.o
 .text.setinputstring
                0x0041d220       0x48 /mnt/md0/miranda/openwrt/tmp/cca1aXTG.ltrans3.ltrans.o
 .text.nlprompt
                0x0041d268       0x30 /mnt/md0/miranda/openwrt/tmp/cca1aXTG.ltrans3.ltrans.o
 .text.freestrings
                0x0041d298       0x58 /mnt/md0/miranda/openwrt/tmp/cca1aXTG.ltrans3.ltrans.o
 .text.historycmd
                0x0041d2f0       0x3c /mnt/md0/miranda/openwrt/tmp/cca1aXTG.ltrans3.ltrans.o
 .text.__pgetc  0x0041d32c      0x71c /mnt/md0/miranda/openwrt/tmp/cca1aXTG.ltrans3.ltrans.o
 .text.pgetc    0x0041da48       0x20 /mnt/md0/miranda/openwrt/tmp/cca1aXTG.ltrans3.ltrans.o
 .text.pgetc_eatbnl
                0x0041da68       0x2c /mnt/md0/miranda/openwrt/tmp/cca1aXTG.ltrans3.ltrans.o
 .text.setparam
                0x0041da94       0x54 /mnt/md0/miranda/openwrt/tmp/cca1aXTG.ltrans3.ltrans.o
 .text.popfile  0x0041dae8       0x64 /mnt/md0/miranda/openwrt/tmp/cca1aXTG.ltrans3.ltrans.o
 .text.setinputfile
                0x0041db4c       0xbc /mnt/md0/miranda/openwrt/tmp/cca1aXTG.ltrans3.ltrans.o
 .text.options  0x0041dc08      0x1e0 /mnt/md0/miranda/openwrt/tmp/cca1aXTG.ltrans3.ltrans.o
 .text.showvars
                0x0041dde8       0x84 /mnt/md0/miranda/openwrt/tmp/cca1aXTG.ltrans3.ltrans.o
 .text.setcmd   0x0041de6c       0x50 /mnt/md0/miranda/openwrt/tmp/cca1aXTG.ltrans3.ltrans.o
 .text.exportcmd
                0x0041debc       0x98 /mnt/md0/miranda/openwrt/tmp/cca1aXTG.ltrans3.ltrans.o
 .text.change_random
                0x0041df54       0xe0 /mnt/md0/miranda/openwrt/tmp/cca1aXTG.ltrans3.ltrans.o
 .text.change_epoch
                0x0041e034       0x44 /mnt/md0/miranda/openwrt/tmp/cca1aXTG.ltrans3.ltrans.o
 .text.change_seconds
                0x0041e078       0x20 /mnt/md0/miranda/openwrt/tmp/cca1aXTG.ltrans3.ltrans.o
 .text.change_realtime
                0x0041e098       0x20 /mnt/md0/miranda/openwrt/tmp/cca1aXTG.ltrans3.ltrans.o
 .text.getoptscmd
                0x0041e0b8      0x210 /mnt/md0/miranda/openwrt/tmp/cca1aXTG.ltrans3.ltrans.o
 .text.tokname  0x0041e2c8       0x28 /mnt/md0/miranda/openwrt/tmp/cca1aXTG.ltrans3.ltrans.o
 .text.raise_error_unexpected_syntax
                0x0041e2f0       0x50 /mnt/md0/miranda/openwrt/tmp/cca1aXTG.ltrans3.ltrans.o
 .text.makename
                0x0041e340       0x24 /mnt/md0/miranda/openwrt/tmp/cca1aXTG.ltrans3.ltrans.o
 .text.set_priority_flag
                0x0041e364       0x4c /mnt/md0/miranda/openwrt/tmp/cca1aXTG.ltrans3.ltrans.o
 .text.readtoken
                0x0041e3b0       0xac /mnt/md0/miranda/openwrt/tmp/cca1aXTG.ltrans3.ltrans.o
 .text.parsefname
                0x0041e45c       0xbc /mnt/md0/miranda/openwrt/tmp/cca1aXTG.ltrans3.ltrans.o
 .text.readtoken1
                0x0041e518      0xdac /mnt/md0/miranda/openwrt/tmp/cca1aXTG.ltrans3.ltrans.o
 .text.xxreadtoken
                0x0041f2c4       0xc8 /mnt/md0/miranda/openwrt/tmp/cca1aXTG.ltrans3.ltrans.o
 .text.parseheredoc
                0x0041f38c       0x7c /mnt/md0/miranda/openwrt/tmp/cca1aXTG.ltrans3.ltrans.o
 .text.list     0x0041f408      0x148 /mnt/md0/miranda/openwrt/tmp/cca1aXTG.ltrans3.ltrans.o
 .text.parse_command
                0x0041f550      0x570 /mnt/md0/miranda/openwrt/tmp/cca1aXTG.ltrans3.ltrans.o
 .text.pipeline
                0x0041fac0       0x98 /mnt/md0/miranda/openwrt/tmp/cca1aXTG.ltrans3.ltrans.o
 .text.parsecmd
                0x0041fb58       0x40 /mnt/md0/miranda/openwrt/tmp/cca1aXTG.ltrans3.ltrans.o
 .text.exitcmd  0x0041fb98       0x28 /mnt/md0/miranda/openwrt/tmp/cca1aXTG.ltrans3.ltrans.o
 .text.cmdloop  0x0041fbc0       0xd0 /mnt/md0/miranda/openwrt/tmp/cca1aXTG.ltrans3.ltrans.o
 .text.dotcmd   0x0041fc90      0x104 /mnt/md0/miranda/openwrt/tmp/cca1aXTG.ltrans3.ltrans.o
 .text.unsetcmd
                0x0041fd94       0x50 /mnt/md0/miranda/openwrt/tmp/cca1aXTG.ltrans3.ltrans.o
 .text.trapcmd  0x0041fde4      0x140 /mnt/md0/miranda/openwrt/tmp/cca1aXTG.ltrans3.ltrans.o
 .text.timescmd
                0x0041ff24       0x64 /mnt/md0/miranda/openwrt/tmp/cca1aXTG.ltrans3.ltrans.o
 .text.letcmd   0x0041ff88       0x2c /mnt/md0/miranda/openwrt/tmp/cca1aXTG.ltrans3.ltrans.o
 .text.readcmd  0x0041ffb4      0x4d4 /mnt/md0/miranda/openwrt/tmp/cca1aXTG.ltrans3.ltrans.o
 .text.umaskcmd
                0x00420488      0x108 /mnt/md0/miranda/openwrt/tmp/cca1aXTG.ltrans3.ltrans.o
 .text.printlim
                0x00420590       0x44 /mnt/md0/miranda/openwrt/tmp/cca1aXTG.ltrans3.ltrans.o
 .text.ulimitcmd
                0x004205d4      0x210 /mnt/md0/miranda/openwrt/tmp/cca1aXTG.ltrans3.ltrans.o
 .text.exitreset
                0x004207e4       0x58 /mnt/md0/miranda/openwrt/tmp/cca1aXTG.ltrans3.ltrans.o
 .text.init     0x0042083c      0x158 /mnt/md0/miranda/openwrt/tmp/cca1aXTG.ltrans3.ltrans.o
 .text.decode   0x00420994       0x34 /mnt/md0/miranda/openwrt/tmp/cca1aXTG.ltrans3.ltrans.o
 .text.logger_main
                0x004209c8      0x148 /mnt/md0/miranda/openwrt/tmp/cca1aXTG.ltrans3.ltrans.o
                0x004209c9                logger_main
 .text.dmesg_main
                0x00420b10       0xe4 /mnt/md0/miranda/openwrt/tmp/cca1aXTG.ltrans3.ltrans.o
                0x00420b11                dmesg_main
 .text.flock_main
                0x00420bf4      0x120 /mnt/md0/miranda/openwrt/tmp/cca1aXTG.ltrans3.ltrans.o
                0x00420bf5                flock_main
 .text.read_rtc
                0x00420d14       0x84 /mnt/md0/miranda/openwrt/tmp/cca1aXTG.ltrans3.ltrans.o
 .text.set_kernel_tz
                0x00420d98       0x20 /mnt/md0/miranda/openwrt/tmp/cca1aXTG.ltrans3.ltrans.o
 .text.set_kernel_timezone_and_clock
                0x00420db8       0x44 /mnt/md0/miranda/openwrt/tmp/cca1aXTG.ltrans3.ltrans.o
 .text.hwclock_main
                0x00420dfc      0x10c /mnt/md0/miranda/openwrt/tmp/cca1aXTG.ltrans3.ltrans.o
                0x00420dfd                hwclock_main
 .text.append_mount_options
                0x00420f08       0x84 /mnt/md0/miranda/openwrt/tmp/cca1aXTG.ltrans3.ltrans.o
 .text.parse_mount_options
                0x00420f8c       0xe8 /mnt/md0/miranda/openwrt/tmp/cca1aXTG.ltrans3.ltrans.o
 .text.mount_it_now
                0x00421074       0xf4 /mnt/md0/miranda/openwrt/tmp/cca1aXTG.ltrans3.ltrans.o
 .text.cut_out_ull_opt
                0x00421168       0x88 /mnt/md0/miranda/openwrt/tmp/cca1aXTG.ltrans3.ltrans.o
 .text.singlemount
                0x004211f0      0x664 /mnt/md0/miranda/openwrt/tmp/cca1aXTG.ltrans3.ltrans.o
 .text.mount_main
                0x00421854      0x320 /mnt/md0/miranda/openwrt/tmp/cca1aXTG.ltrans3.ltrans.o
                0x00421855                mount_main
 .text.pivot_root_main
                0x00421b74       0x28 /mnt/md0/miranda/openwrt/tmp/cca1aXTG.ltrans3.ltrans.o
                0x00421b75                pivot_root_main
 .text.swap_enable_disable
                0x00421b9c       0xa0 /mnt/md0/miranda/openwrt/tmp/cca1aXTG.ltrans3.ltrans.o
 .text.swap_on_off_main
                0x00421c3c      0x190 /mnt/md0/miranda/openwrt/tmp/cca1aXTG.ltrans3.ltrans.o
                0x00421c3d                swap_on_off_main
 .text.unwindfiles.lto_priv.0
                0x00421dcc       0x1c /mnt/md0/miranda/openwrt/tmp/cca1aXTG.ltrans3.ltrans.o
                0x00421dcd                unwindfiles.lto_priv.0
 .text.expandstr.lto_priv.0
                0x00421de8       0xc4 /mnt/md0/miranda/openwrt/tmp/cca1aXTG.ltrans3.ltrans.o
                0x00421de9                expandstr.lto_priv.0
 .text.read_profile
                0x00421eac       0x24 /mnt/md0/miranda/openwrt/tmp/cca1aXTG.ltrans3.ltrans.o
 .text.evalstring.lto_priv.0
                0x00421ed0       0xc0 /mnt/md0/miranda/openwrt/tmp/cca1aXTG.ltrans3.ltrans.o
                0x00421ed1                evalstring.lto_priv.0
 .text.evalbltin
                0x00421f90       0xf8 /mnt/md0/miranda/openwrt/tmp/cca1aXTG.ltrans3.ltrans.o
 .text.exitshell
                0x00422088       0x78 /mnt/md0/miranda/openwrt/tmp/cca1aXTG.ltrans3.ltrans.o
 .text.ash_main
                0x00422100      0x358 /mnt/md0/miranda/openwrt/tmp/cca1aXTG.ltrans3.ltrans.o
                0x00422101                ash_main
 .text.find_command.lto_priv.0
                0x00422458      0x290 /mnt/md0/miranda/openwrt/tmp/cca1aXTG.ltrans3.ltrans.o
                0x00422459                find_command.lto_priv.0
 .text.evalcommand.lto_priv.0
                0x004226e8      0x4a4 /mnt/md0/miranda/openwrt/tmp/cca1aXTG.ltrans3.ltrans.o
                0x004226e9                evalcommand.lto_priv.0
 .text.evaluate_string.lto_priv.0
                0x00422b8c      0x2e8 /mnt/md0/miranda/openwrt/tmp/cca1aXTG.ltrans3.ltrans.o
                0x00422b8d                evaluate_string.lto_priv.0
 .text.arith_lookup_val
                0x00422e74       0x6c /mnt/md0/miranda/openwrt/tmp/cca1aXTG.ltrans3.ltrans.o
 .text.arith_apply
                0x00422ee0      0x490 /mnt/md0/miranda/openwrt/tmp/cca1aXTG.ltrans3.ltrans.o
 .text.init_block
                0x00423370       0x60 /mnt/md0/miranda/openwrt/tmp/cca1aXTG.ltrans4.ltrans.o
 .text.pqdownheap
                0x004233d0       0xa0 /mnt/md0/miranda/openwrt/tmp/cca1aXTG.ltrans4.ltrans.o
 .text.gen_codes
                0x00423470       0x64 /mnt/md0/miranda/openwrt/tmp/cca1aXTG.ltrans4.ltrans.o
 .text.build_tree
                0x004234d4      0x2c8 /mnt/md0/miranda/openwrt/tmp/cca1aXTG.ltrans4.ltrans.o
 .text.scan_tree
                0x0042379c       0xd8 /mnt/md0/miranda/openwrt/tmp/cca1aXTG.ltrans4.ltrans.o
 .text.ct_tally
                0x00423874      0x134 /mnt/md0/miranda/openwrt/tmp/cca1aXTG.ltrans4.ltrans.o
 .text.header_skip
                0x004239a8        0x4 /mnt/md0/miranda/openwrt/tmp/cca1aXTG.ltrans4.ltrans.o
 .text.data_skip
                0x004239ac       0x14 /mnt/md0/miranda/openwrt/tmp/cca1aXTG.ltrans4.ltrans.o
 .text.filter_accept_all
                0x004239c0        0xc /mnt/md0/miranda/openwrt/tmp/cca1aXTG.ltrans4.ltrans.o
 .text.calculate_gunzip_crc
                0x004239cc       0x3c /mnt/md0/miranda/openwrt/tmp/cca1aXTG.ltrans4.ltrans.o
 .text.buffer_read_le_u32
                0x00423a08       0x24 /mnt/md0/miranda/openwrt/tmp/cca1aXTG.ltrans4.ltrans.o
 .text.cmpfunc  0x00423a2c        0x8 /mnt/md0/miranda/openwrt/tmp/cca1aXTG.ltrans4.ltrans.o
 .text.null     0x00423a34       0x28 /mnt/md0/miranda/openwrt/tmp/cca1aXTG.ltrans4.ltrans.o
 .text.false_main
                0x00423a5c        0x4 /mnt/md0/miranda/openwrt/tmp/cca1aXTG.ltrans4.ltrans.o
                0x00423a5d                false_main
 .text.huft_free
                0x00423a60       0x1c /mnt/md0/miranda/openwrt/tmp/cca1aXTG.ltrans4.ltrans.o
 .text.freev    0x00423a7c       0x1c /mnt/md0/miranda/openwrt/tmp/cca1aXTG.ltrans4.ltrans.o
 .text.delete_contents
                0x00423a98       0x48 /mnt/md0/miranda/openwrt/tmp/cca1aXTG.ltrans4.ltrans.o
 .text.rmrf     0x00423ae0       0x24 /mnt/md0/miranda/openwrt/tmp/cca1aXTG.ltrans4.ltrans.o
 .text.switch_root_main
                0x00423b04      0x12c /mnt/md0/miranda/openwrt/tmp/cca1aXTG.ltrans4.ltrans.o
                0x00423b05                switch_root_main
 .text.huft_build
                0x00423c30      0x344 /mnt/md0/miranda/openwrt/tmp/cca1aXTG.ltrans4.ltrans.o
 .text.process_pid_str
                0x00423f74      0x2c0 /mnt/md0/miranda/openwrt/tmp/cca1aXTG.ltrans4.ltrans.o
 .text.iter     0x00424234       0x24 /mnt/md0/miranda/openwrt/tmp/cca1aXTG.ltrans4.ltrans.o
 .text.append_ext
                0x00424258       0x18 /mnt/md0/miranda/openwrt/tmp/cca1aXTG.ltrans4.ltrans.o
 .text.tostring
                0x00424270       0x24 /mnt/md0/miranda/openwrt/tmp/cca1aXTG.ltrans4.ltrans.o
 .text.taskset_main
                0x00424294       0x80 /mnt/md0/miranda/openwrt/tmp/cca1aXTG.ltrans4.ltrans.o
                0x00424295                taskset_main
 .text.nextarg  0x00424314       0x28 /mnt/md0/miranda/openwrt/tmp/cca1aXTG.ltrans4.ltrans.o
 .text.str_value
                0x0042433c       0x20 /mnt/md0/miranda/openwrt/tmp/cca1aXTG.ltrans4.ltrans.o
 .text.umount_main
                0x0042435c      0x1b0 /mnt/md0/miranda/openwrt/tmp/cca1aXTG.ltrans4.ltrans.o
                0x0042435d                umount_main
 .text.fileAction.lto_priv.1
                0x0042450c       0x34 /mnt/md0/miranda/openwrt/tmp/cca1aXTG.ltrans4.ltrans.o
 .text.make_new_name_gunzip
                0x00424540       0x54 /mnt/md0/miranda/openwrt/tmp/cca1aXTG.ltrans4.ltrans.o
 .text.flush_outbuf
                0x00424594       0x24 /mnt/md0/miranda/openwrt/tmp/cca1aXTG.ltrans4.ltrans.o
 .text.put_16bit
                0x004245b8       0x60 /mnt/md0/miranda/openwrt/tmp/cca1aXTG.ltrans4.ltrans.o
 .text.put_32bit
                0x00424618       0x18 /mnt/md0/miranda/openwrt/tmp/cca1aXTG.ltrans4.ltrans.o
 .text.send_bits
                0x00424630       0x40 /mnt/md0/miranda/openwrt/tmp/cca1aXTG.ltrans4.ltrans.o
 .text.send_tree
                0x00424670      0x114 /mnt/md0/miranda/openwrt/tmp/cca1aXTG.ltrans4.ltrans.o
 .text.compress_block
                0x00424784      0x118 /mnt/md0/miranda/openwrt/tmp/cca1aXTG.ltrans4.ltrans.o
 .text.bi_windup
                0x0042489c       0x54 /mnt/md0/miranda/openwrt/tmp/cca1aXTG.ltrans4.ltrans.o
 .text.flush_block
                0x004248f0      0x1c4 /mnt/md0/miranda/openwrt/tmp/cca1aXTG.ltrans4.ltrans.o
 .text.file_read
                0x00424ab4       0x58 /mnt/md0/miranda/openwrt/tmp/cca1aXTG.ltrans4.ltrans.o
 .text.fill_window_if_needed
                0x00424b0c      0x10c /mnt/md0/miranda/openwrt/tmp/cca1aXTG.ltrans4.ltrans.o
 .text.deflate  0x00424c18      0x370 /mnt/md0/miranda/openwrt/tmp/cca1aXTG.ltrans4.ltrans.o
 .text.pack_gzip
                0x00424f88      0x2ac /mnt/md0/miranda/openwrt/tmp/cca1aXTG.ltrans4.ltrans.o
 .text.putOctal
                0x00425234       0x54 /mnt/md0/miranda/openwrt/tmp/cca1aXTG.ltrans4.ltrans.o
 .text.chksum_and_xwrite_tar_header
                0x00425288       0x5c /mnt/md0/miranda/openwrt/tmp/cca1aXTG.ltrans4.ltrans.o
 .text.writeLongname
                0x004252e4       0xb8 /mnt/md0/miranda/openwrt/tmp/cca1aXTG.ltrans4.ltrans.o
 .text.dd_output_status
                0x0042539c       0x3c /mnt/md0/miranda/openwrt/tmp/cca1aXTG.ltrans4.ltrans.o
 .text.writeTarHeader
                0x004253d8      0x294 /mnt/md0/miranda/openwrt/tmp/cca1aXTG.ltrans4.ltrans.o
 .text.data_extract_to_stdout
                0x0042566c       0x14 /mnt/md0/miranda/openwrt/tmp/cca1aXTG.ltrans4.ltrans.o
 .text.seek_by_read
                0x00425680       0x18 /mnt/md0/miranda/openwrt/tmp/cca1aXTG.ltrans4.ltrans.o
 .text.find_list_entry2
                0x00425698       0x70 /mnt/md0/miranda/openwrt/tmp/cca1aXTG.ltrans4.ltrans.o
 .text.filter_accept_reject_list
                0x00425708       0x2c /mnt/md0/miranda/openwrt/tmp/cca1aXTG.ltrans4.ltrans.o
 .text.vfork_compressor
                0x00425734       0x9c /mnt/md0/miranda/openwrt/tmp/cca1aXTG.ltrans4.ltrans.o
 .text.writeTarFile
                0x004257d0       0xc8 /mnt/md0/miranda/openwrt/tmp/cca1aXTG.ltrans4.ltrans.o
 .text.append_file_list_to_list
                0x00425898       0x4c /mnt/md0/miranda/openwrt/tmp/cca1aXTG.ltrans4.ltrans.o
 .text.chmod_main
                0x004258e4       0xa0 /mnt/md0/miranda/openwrt/tmp/cca1aXTG.ltrans4.ltrans.o
                0x004258e5                chmod_main
 .text.header_verbose_list
                0x00425984       0x6c /mnt/md0/miranda/openwrt/tmp/cca1aXTG.ltrans4.ltrans.o
 .text.header_list
                0x004259f0       0x10 /mnt/md0/miranda/openwrt/tmp/cca1aXTG.ltrans4.ltrans.o
 .text.seek_by_jump
                0x00425a00       0x48 /mnt/md0/miranda/openwrt/tmp/cca1aXTG.ltrans4.ltrans.o
 .text.data_extract_all
                0x00425a48      0x2e0 /mnt/md0/miranda/openwrt/tmp/cca1aXTG.ltrans4.ltrans.o
 .text.abort_unzip
                0x00425d28       0x20 /mnt/md0/miranda/openwrt/tmp/cca1aXTG.ltrans4.ltrans.o
 .text.fill_bitbuffer
                0x00425d48       0x90 /mnt/md0/miranda/openwrt/tmp/cca1aXTG.ltrans4.ltrans.o
 .text.inflate_codes
                0x00425dd8      0x23c /mnt/md0/miranda/openwrt/tmp/cca1aXTG.ltrans4.ltrans.o
 .text.inflate_block
                0x00426014      0x3f0 /mnt/md0/miranda/openwrt/tmp/cca1aXTG.ltrans4.ltrans.o
 .text.inflate_unzip_internal
                0x00426404      0x23c /mnt/md0/miranda/openwrt/tmp/cca1aXTG.ltrans4.ltrans.o
 .text.clear_main
                0x00426640       0x28 /mnt/md0/miranda/openwrt/tmp/cca1aXTG.ltrans4.ltrans.o
                0x00426641                clear_main
 .text.top_up   0x00426668       0x5c /mnt/md0/miranda/openwrt/tmp/cca1aXTG.ltrans4.ltrans.o
 .text.unpack_gz_stream
                0x004266c4      0x220 /mnt/md0/miranda/openwrt/tmp/cca1aXTG.ltrans4.ltrans.o
                0x004266c5                unpack_gz_stream
 .text.getOctal
                0x004268e4       0x5c /mnt/md0/miranda/openwrt/tmp/cca1aXTG.ltrans4.ltrans.o
 .text.strip_unsafe_prefix
                0x00426940       0x5c /mnt/md0/miranda/openwrt/tmp/cca1aXTG.ltrans4.ltrans.o
 .text.writeFileToTarball
                0x0042699c      0x1ac /mnt/md0/miranda/openwrt/tmp/cca1aXTG.ltrans4.ltrans.o
 .text.get_header_tar
                0x00426b48      0x590 /mnt/md0/miranda/openwrt/tmp/cca1aXTG.ltrans4.ltrans.o
 .text.fork_transformer
                0x004270d8       0x80 /mnt/md0/miranda/openwrt/tmp/cca1aXTG.ltrans4.ltrans.o
 .text.bbunpack
                0x00427158      0x2cc /mnt/md0/miranda/openwrt/tmp/cca1aXTG.ltrans4.ltrans.o
 .text.gunzip_main
                0x00427424       0x54 /mnt/md0/miranda/openwrt/tmp/cca1aXTG.ltrans4.ltrans.o
                0x00427425                gunzip_main
 .text.gzip_main
                0x00427478       0xc0 /mnt/md0/miranda/openwrt/tmp/cca1aXTG.ltrans4.ltrans.o
                0x00427479                gzip_main
 .text.tar_main
                0x00427538      0x338 /mnt/md0/miranda/openwrt/tmp/cca1aXTG.ltrans4.ltrans.o
                0x00427539                tar_main
 .text.reset_main
                0x00427870       0x34 /mnt/md0/miranda/openwrt/tmp/cca1aXTG.ltrans4.ltrans.o
                0x00427871                reset_main
 .text.onintr   0x004278a4       0x18 /mnt/md0/miranda/openwrt/tmp/cca1aXTG.ltrans4.ltrans.o
 .text.resize_main
                0x004278bc       0xd8 /mnt/md0/miranda/openwrt/tmp/cca1aXTG.ltrans4.ltrans.o
                0x004278bd                resize_main
 .text.basename_main
                0x00427994       0xa0 /mnt/md0/miranda/openwrt/tmp/cca1aXTG.ltrans4.ltrans.o
                0x00427995                basename_main
 .text.cat_main
                0x00427a34       0x38 /mnt/md0/miranda/openwrt/tmp/cca1aXTG.ltrans4.ltrans.o
                0x00427a35                cat_main
 .text.fileAction.lto_priv.0
                0x00427a6c       0x58 /mnt/md0/miranda/openwrt/tmp/cca1aXTG.ltrans4.ltrans.o
 .text.chown_main
                0x00427ac4       0x78 /mnt/md0/miranda/openwrt/tmp/cca1aXTG.ltrans4.ltrans.o
                0x00427ac5                chown_main
 .text.chgrp_main
                0x00427b3c       0x30 /mnt/md0/miranda/openwrt/tmp/cca1aXTG.ltrans4.ltrans.o
                0x00427b3d                chgrp_main
 .text.chroot_main
                0x00427b6c       0x30 /mnt/md0/miranda/openwrt/tmp/cca1aXTG.ltrans4.ltrans.o
                0x00427b6d                chroot_main
 .text.cp_main  0x00427b9c      0x124 /mnt/md0/miranda/openwrt/tmp/cca1aXTG.ltrans4.ltrans.o
                0x00427b9d                cp_main
 .text.cut_main
                0x00427cc0      0x35c /mnt/md0/miranda/openwrt/tmp/cca1aXTG.ltrans4.ltrans.o
                0x00427cc1                cut_main
 .text.date_main
                0x0042801c      0x230 /mnt/md0/miranda/openwrt/tmp/cca1aXTG.ltrans4.ltrans.o
                0x0042801d                date_main
 .text.clear_O_DIRECT
                0x0042824c       0x40 /mnt/md0/miranda/openwrt/tmp/cca1aXTG.ltrans4.ltrans.o
 .text.dd_read  0x0042828c       0x44 /mnt/md0/miranda/openwrt/tmp/cca1aXTG.ltrans4.ltrans.o
 .text.write_and_stats
                0x004282d0       0x74 /mnt/md0/miranda/openwrt/tmp/cca1aXTG.ltrans4.ltrans.o
 .text.parse_comma_flags
                0x00428344       0x50 /mnt/md0/miranda/openwrt/tmp/cca1aXTG.ltrans4.ltrans.o
 .text.alloc_buf
                0x00428394       0x3c /mnt/md0/miranda/openwrt/tmp/cca1aXTG.ltrans4.ltrans.o
 .text.dd_main  0x004283d0      0x4fc /mnt/md0/miranda/openwrt/tmp/cca1aXTG.ltrans4.ltrans.o
                0x004283d1                dd_main
 .text.print    0x004288cc       0x34 /mnt/md0/miranda/openwrt/tmp/cca1aXTG.ltrans4.ltrans.o
 .text.df_main  0x00428900      0x270 /mnt/md0/miranda/openwrt/tmp/cca1aXTG.ltrans4.ltrans.o
                0x00428901                df_main
 .text.dirname_main
                0x00428b70       0x3c /mnt/md0/miranda/openwrt/tmp/cca1aXTG.ltrans4.ltrans.o
                0x00428b71                dirname_main
 .text.du       0x00428bac      0x174 /mnt/md0/miranda/openwrt/tmp/cca1aXTG.ltrans4.ltrans.o
 .text.du_main  0x00428d20      0x110 /mnt/md0/miranda/openwrt/tmp/cca1aXTG.ltrans4.ltrans.o
                0x00428d21                du_main
 .text.echo_main
                0x00428e30      0x124 /mnt/md0/miranda/openwrt/tmp/cca1aXTG.ltrans4.ltrans.o
                0x00428e31                echo_main
 .text.env_main
                0x00428f54       0xbc /mnt/md0/miranda/openwrt/tmp/cca1aXTG.ltrans4.ltrans.o
                0x00428f55                env_main
 .text.toarith  0x00429010       0x44 /mnt/md0/miranda/openwrt/tmp/cca1aXTG.ltrans4.ltrans.o
 .text.arithmetic_common
                0x00429054       0x90 /mnt/md0/miranda/openwrt/tmp/cca1aXTG.ltrans4.ltrans.o
 .text.docolon  0x004290e4       0xb8 /mnt/md0/miranda/openwrt/tmp/cca1aXTG.ltrans4.ltrans.o
 .text.eval6    0x0042919c      0x200 /mnt/md0/miranda/openwrt/tmp/cca1aXTG.ltrans4.ltrans.o
 .text.eval5    0x0042939c       0x4c /mnt/md0/miranda/openwrt/tmp/cca1aXTG.ltrans4.ltrans.o
 .text.eval4    0x004293e8       0x84 /mnt/md0/miranda/openwrt/tmp/cca1aXTG.ltrans4.ltrans.o
 .text.eval3    0x0042946c       0x70 /mnt/md0/miranda/openwrt/tmp/cca1aXTG.ltrans4.ltrans.o
 .text.eval2    0x004294dc      0x168 /mnt/md0/miranda/openwrt/tmp/cca1aXTG.ltrans4.ltrans.o
 .text.eval1    0x00429644       0x68 /mnt/md0/miranda/openwrt/tmp/cca1aXTG.ltrans4.ltrans.o
 .text.eval     0x004296ac       0x4c /mnt/md0/miranda/openwrt/tmp/cca1aXTG.ltrans4.ltrans.o
 .text.expr_main
                0x004296f8       0x64 /mnt/md0/miranda/openwrt/tmp/cca1aXTG.ltrans4.ltrans.o
                0x004296f9                expr_main
 .text.append_char
                0x0042975c       0x4c /mnt/md0/miranda/openwrt/tmp/cca1aXTG.ltrans5.ltrans.o
 .text.count_dirs
                0x004297a8       0x48 /mnt/md0/miranda/openwrt/tmp/cca1aXTG.ltrans5.ltrans.o
 .text.true_main
                0x004297f0        0x4 /mnt/md0/miranda/openwrt/tmp/cca1aXTG.ltrans5.ltrans.o
                0x004297f1                true_main
 .text.hashidx  0x004297f4       0x14 /mnt/md0/miranda/openwrt/tmp/cca1aXTG.ltrans5.ltrans.o
 .text.skip_spaces
                0x00429808       0x2c /mnt/md0/miranda/openwrt/tmp/cca1aXTG.ltrans5.ltrans.o
 .text.nextword
                0x00429834       0x10 /mnt/md0/miranda/openwrt/tmp/cca1aXTG.ltrans5.ltrans.o
 .text.nextarg  0x00429844       0x20 /mnt/md0/miranda/openwrt/tmp/cca1aXTG.ltrans5.ltrans.o
 .text.print_common
                0x00429864       0x6c /mnt/md0/miranda/openwrt/tmp/cca1aXTG.ltrans5.ltrans.o
 .text.hash_clear
                0x004298d0       0x4c /mnt/md0/miranda/openwrt/tmp/cca1aXTG.ltrans5.ltrans.o
 .text.yes_main
                0x0042991c       0x38 /mnt/md0/miranda/openwrt/tmp/cca1aXTG.ltrans5.ltrans.o
                0x0042991d                yes_main
 .text.my_stat  0x00429954       0xf0 /mnt/md0/miranda/openwrt/tmp/cca1aXTG.ltrans5.ltrans.o
 .text.dnalloc  0x00429a44       0x14 /mnt/md0/miranda/openwrt/tmp/cca1aXTG.ltrans5.ltrans.o
 .text.splitdnarray
                0x00429a58       0x60 /mnt/md0/miranda/openwrt/tmp/cca1aXTG.ltrans5.ltrans.o
 .text.hash_init
                0x00429ab8       0x1c /mnt/md0/miranda/openwrt/tmp/cca1aXTG.ltrans5.ltrans.o
 .text.iamarray
                0x00429ad4       0x2c /mnt/md0/miranda/openwrt/tmp/cca1aXTG.ltrans5.ltrans.o
 .text.new_node
                0x00429b00       0x20 /mnt/md0/miranda/openwrt/tmp/cca1aXTG.ltrans5.ltrans.o
 .text.chain_node
                0x00429b20       0x60 /mnt/md0/miranda/openwrt/tmp/cca1aXTG.ltrans5.ltrans.o
 .text.head_main
                0x00429b80      0x280 /mnt/md0/miranda/openwrt/tmp/cca1aXTG.ltrans5.ltrans.o
                0x00429b81                head_main
 .text.eat_num.lto_priv.1
                0x00429e00       0x2c /mnt/md0/miranda/openwrt/tmp/cca1aXTG.ltrans5.ltrans.o
 .text.print_group
                0x00429e2c       0x1c /mnt/md0/miranda/openwrt/tmp/cca1aXTG.ltrans5.ltrans.o
 .text.print_user
                0x00429e48       0x1c /mnt/md0/miranda/openwrt/tmp/cca1aXTG.ltrans5.ltrans.o
 .text.get_groups
                0x00429e64       0x58 /mnt/md0/miranda/openwrt/tmp/cca1aXTG.ltrans5.ltrans.o
 .text.qrealloc
                0x00429ebc       0x20 /mnt/md0/miranda/openwrt/tmp/cca1aXTG.ltrans5.ltrans.o
 .text.id_main  0x00429edc      0x180 /mnt/md0/miranda/openwrt/tmp/cca1aXTG.ltrans5.ltrans.o
                0x00429edd                id_main
 .text.syntax_error
                0x0042a05c       0x20 /mnt/md0/miranda/openwrt/tmp/cca1aXTG.ltrans5.ltrans.o
 .text.ln_main  0x0042a07c      0x1d8 /mnt/md0/miranda/openwrt/tmp/cca1aXTG.ltrans5.ltrans.o
                0x0042a07d                ln_main
 .text.print_name
                0x0042a254       0x5c /mnt/md0/miranda/openwrt/tmp/cca1aXTG.ltrans5.ltrans.o
 .text.display_single
                0x0042a2b0      0x388 /mnt/md0/miranda/openwrt/tmp/cca1aXTG.ltrans5.ltrans.o
 .text.display_files
                0x0042a638      0x148 /mnt/md0/miranda/openwrt/tmp/cca1aXTG.ltrans5.ltrans.o
 .text.hash_search3
                0x0042a780       0x30 /mnt/md0/miranda/openwrt/tmp/cca1aXTG.ltrans5.ltrans.o
 .text.hash_search
                0x0042a7b0       0x1c /mnt/md0/miranda/openwrt/tmp/cca1aXTG.ltrans5.ltrans.o
 .text.sortcmp  0x0042a7cc       0xdc /mnt/md0/miranda/openwrt/tmp/cca1aXTG.ltrans5.ltrans.o
 .text.dnsort   0x0042a8a8       0x14 /mnt/md0/miranda/openwrt/tmp/cca1aXTG.ltrans5.ltrans.o
 .text.scan_and_display_dirs_recur
                0x0042a8bc      0x168 /mnt/md0/miranda/openwrt/tmp/cca1aXTG.ltrans5.ltrans.o
 .text.ls_main  0x0042aa24      0x210 /mnt/md0/miranda/openwrt/tmp/cca1aXTG.ltrans5.ltrans.o
                0x0042aa25                ls_main
 .text.hash_file
                0x0042ac34      0x120 /mnt/md0/miranda/openwrt/tmp/cca1aXTG.ltrans5.ltrans.o
 .text.md5_sha1_sum_main
                0x0042ad54      0x164 /mnt/md0/miranda/openwrt/tmp/cca1aXTG.ltrans5.ltrans.o
                0x0042ad55                md5_sha1_sum_main
 .text.mkdir_main
                0x0042aeb8       0x84 /mnt/md0/miranda/openwrt/tmp/cca1aXTG.ltrans5.ltrans.o
                0x0042aeb9                mkdir_main
 .text.mktemp_main
                0x0042af3c       0xb0 /mnt/md0/miranda/openwrt/tmp/cca1aXTG.ltrans5.ltrans.o
                0x0042af3d                mktemp_main
 .text.rm_main  0x0042afec       0x94 /mnt/md0/miranda/openwrt/tmp/cca1aXTG.ltrans5.ltrans.o
                0x0042afed                rm_main
 .text.multiconvert
                0x0042b080       0x44 /mnt/md0/miranda/openwrt/tmp/cca1aXTG.ltrans5.ltrans.o
 .text.conv_strtoll
                0x0042b0c4       0x1c /mnt/md0/miranda/openwrt/tmp/cca1aXTG.ltrans5.ltrans.o
 .text.conv_strtoull
                0x0042b0e0       0x38 /mnt/md0/miranda/openwrt/tmp/cca1aXTG.ltrans5.ltrans.o
 .text.print_direc
                0x0042b118      0x160 /mnt/md0/miranda/openwrt/tmp/cca1aXTG.ltrans5.ltrans.o
 .text.get_width_prec
                0x0042b278       0x2c /mnt/md0/miranda/openwrt/tmp/cca1aXTG.ltrans5.ltrans.o
 .text.expand   0x0042b2a4       0x98 /mnt/md0/miranda/openwrt/tmp/cca1aXTG.ltrans5.ltrans.o
 .text.nextchar
                0x0042b33c       0x30 /mnt/md0/miranda/openwrt/tmp/cca1aXTG.ltrans5.ltrans.o
 .text.unescape_string_in_place
                0x0042b36c       0x18 /mnt/md0/miranda/openwrt/tmp/cca1aXTG.ltrans5.ltrans.o
 .text.printf_main
                0x0042b384      0x2b4 /mnt/md0/miranda/openwrt/tmp/cca1aXTG.ltrans5.ltrans.o
                0x0042b385                printf_main
 .text.pwd_main
                0x0042b638       0x28 /mnt/md0/miranda/openwrt/tmp/cca1aXTG.ltrans5.ltrans.o
                0x0042b639                pwd_main
 .text.readlink_main
                0x0042b660       0x70 /mnt/md0/miranda/openwrt/tmp/cca1aXTG.ltrans5.ltrans.o
                0x0042b661                readlink_main
 .text.rmdir_main
                0x0042b6d0       0x90 /mnt/md0/miranda/openwrt/tmp/cca1aXTG.ltrans5.ltrans.o
                0x0042b6d1                rmdir_main
 .text.hash_remove
                0x0042b760       0x5c /mnt/md0/miranda/openwrt/tmp/cca1aXTG.ltrans5.ltrans.o
 .text.sleep_main
                0x0042b7bc       0x5c /mnt/md0/miranda/openwrt/tmp/cca1aXTG.ltrans5.ltrans.o
                0x0042b7bd                sleep_main
 .text.compare_keys
                0x0042b818       0xbc /mnt/md0/miranda/openwrt/tmp/cca1aXTG.ltrans5.ltrans.o
 .text.sort_main
                0x0042b8d4      0x1a0 /mnt/md0/miranda/openwrt/tmp/cca1aXTG.ltrans5.ltrans.o
                0x0042b8d5                sort_main
 .text.sync_main
                0x0042ba74       0x10 /mnt/md0/miranda/openwrt/tmp/cca1aXTG.ltrans5.ltrans.o
                0x0042ba75                sync_main
 .text.fsync_main
                0x0042ba84       0x70 /mnt/md0/miranda/openwrt/tmp/cca1aXTG.ltrans5.ltrans.o
                0x0042ba85                fsync_main
 .text.tail_main
                0x0042baf4      0x554 /mnt/md0/miranda/openwrt/tmp/cca1aXTG.ltrans5.ltrans.o
                0x0042baf5                tail_main
 .text.tee_main
                0x0042c048      0x110 /mnt/md0/miranda/openwrt/tmp/cca1aXTG.ltrans5.ltrans.o
                0x0042c049                tee_main
 .text.syntax   0x0042c158       0x38 /mnt/md0/miranda/openwrt/tmp/cca1aXTG.ltrans5.ltrans.o
 .text.getn     0x0042c190       0x4c /mnt/md0/miranda/openwrt/tmp/cca1aXTG.ltrans5.ltrans.o
 .text.check_operator
                0x0042c1dc       0x64 /mnt/md0/miranda/openwrt/tmp/cca1aXTG.ltrans5.ltrans.o
 .text.binop    0x0042c240      0x208 /mnt/md0/miranda/openwrt/tmp/cca1aXTG.ltrans5.ltrans.o
 .text.nexpr    0x0042c448      0x300 /mnt/md0/miranda/openwrt/tmp/cca1aXTG.ltrans5.ltrans.o
 .text.aexpr    0x0042c748       0x60 /mnt/md0/miranda/openwrt/tmp/cca1aXTG.ltrans5.ltrans.o
 .text.oexpr    0x0042c7a8       0x5c /mnt/md0/miranda/openwrt/tmp/cca1aXTG.ltrans5.ltrans.o
 .text.test_main
                0x0042c804      0x150 /mnt/md0/miranda/openwrt/tmp/cca1aXTG.ltrans5.ltrans.o
                0x0042c805                test_main
 .text.touch_main
                0x0042c954      0x13c /mnt/md0/miranda/openwrt/tmp/cca1aXTG.ltrans5.ltrans.o
                0x0042c955                touch_main
 .text.complement
                0x0042ca90       0x64 /mnt/md0/miranda/openwrt/tmp/cca1aXTG.ltrans5.ltrans.o
 .text.tr_main  0x0042caf4      0x178 /mnt/md0/miranda/openwrt/tmp/cca1aXTG.ltrans5.ltrans.o
                0x0042caf5                tr_main
 .text.hash_find
                0x0042cc6c       0xe8 /mnt/md0/miranda/openwrt/tmp/cca1aXTG.ltrans5.ltrans.o
 .text.uname_main
                0x0042cd54       0xd8 /mnt/md0/miranda/openwrt/tmp/cca1aXTG.ltrans5.ltrans.o
                0x0042cd55                uname_main
 .text.next_token
                0x0042ce2c      0x384 /mnt/md0/miranda/openwrt/tmp/cca1aXTG.ltrans5.ltrans.o
 .text.uniq_main
                0x0042d1b0      0x164 /mnt/md0/miranda/openwrt/tmp/cca1aXTG.ltrans5.ltrans.o
                0x0042d1b1                uniq_main
 .text.wc_main  0x0042d314      0x1d4 /mnt/md0/miranda/openwrt/tmp/cca1aXTG.ltrans5.ltrans.o
                0x0042d315                wc_main
 .text.getopt_mk_fifo_nod
                0x0042d4e8       0x3c /mnt/md0/miranda/openwrt/tmp/cca1aXTG.ltrans5.ltrans.o
 .text.mkfifo_main
                0x0042d524       0x44 /mnt/md0/miranda/openwrt/tmp/cca1aXTG.ltrans5.ltrans.o
                0x0042d525                mkfifo_main
 .text.mknod_main
                0x0042d568       0xe0 /mnt/md0/miranda/openwrt/tmp/cca1aXTG.ltrans5.ltrans.o
                0x0042d569                mknod_main
 .text.fmt_num  0x0042d648       0xb8 /mnt/md0/miranda/openwrt/tmp/cca1aXTG.ltrans5.ltrans.o
 .text.getvar_s
                0x0042d700       0x4c /mnt/md0/miranda/openwrt/tmp/cca1aXTG.ltrans5.ltrans.o
 .text.check    0x0042d74c      0x128 /mnt/md0/miranda/openwrt/tmp/cca1aXTG.ltrans5.ltrans.o
 .text.start_stop_daemon_main
                0x0042d874      0x350 /mnt/md0/miranda/openwrt/tmp/cca1aXTG.ltrans5.ltrans.o
                0x0042d875                start_stop_daemon_main
 .text.which_main
                0x0042dbc4      0x104 /mnt/md0/miranda/openwrt/tmp/cca1aXTG.ltrans5.ltrans.o
                0x0042dbc5                which_main
 .text.nvfree   0x0042dcc8       0x68 /mnt/md0/miranda/openwrt/tmp/cca1aXTG.ltrans5.ltrans.o
 .text.setari_u
                0x0042dd30       0x28 /mnt/md0/miranda/openwrt/tmp/cca1aXTG.ltrans5.ltrans.o
 .text.mk_splitter
                0x0042dd58       0x5c /mnt/md0/miranda/openwrt/tmp/cca1aXTG.ltrans5.ltrans.o
 .text.fsrealloc
                0x0042ddb4       0x88 /mnt/md0/miranda/openwrt/tmp/cca1aXTG.ltrans5.ltrans.o
 .text.awk_split
                0x0042de3c      0x1bc /mnt/md0/miranda/openwrt/tmp/cca1aXTG.ltrans5.ltrans.o
 .text.split_f0
                0x0042dff8       0x90 /mnt/md0/miranda/openwrt/tmp/cca1aXTG.ltrans5.ltrans.o
 .text.handle_special
                0x0042e088      0x19c /mnt/md0/miranda/openwrt/tmp/cca1aXTG.ltrans5.ltrans.o
 .text.setvar_p
                0x0042e224       0x18 /mnt/md0/miranda/openwrt/tmp/cca1aXTG.ltrans5.ltrans.o
 .text.setvar_i
                0x0042e23c       0x28 /mnt/md0/miranda/openwrt/tmp/cca1aXTG.ltrans5.ltrans.o
 .text.copyvar  0x0042e264       0x40 /mnt/md0/miranda/openwrt/tmp/cca1aXTG.ltrans5.ltrans.o
 .text.do_mktime
                0x0042e2a4       0x54 /mnt/md0/miranda/openwrt/tmp/cca1aXTG.ltrans5.ltrans.o
 .text.is_assignment
                0x0042e2f8       0x5c /mnt/md0/miranda/openwrt/tmp/cca1aXTG.ltrans5.ltrans.o
 .text.cp_mv_stat2
                0x0042e354       0x48 /mnt/md0/miranda/openwrt/tmp/cca1aXTG.ltrans5.ltrans.o
                0x0042e355                cp_mv_stat2
 .text.mv_main  0x0042e39c      0x1ec /mnt/md0/miranda/openwrt/tmp/cca1aXTG.ltrans5.ltrans.o
                0x0042e39d                mv_main
 .text.setvar_s.lto_priv.0
                0x0042e588       0x20 /mnt/md0/miranda/openwrt/tmp/cca1aXTG.ltrans5.ltrans.o
                0x0042e589                setvar_s.lto_priv.0
 .text.parse_expr
                0x0042e5a8      0x32c /mnt/md0/miranda/openwrt/tmp/cca1aXTG.ltrans5.ltrans.o
 .text.parse_lrparen_list
                0x0042e8d4       0x14 /mnt/md0/miranda/openwrt/tmp/cca1aXTG.ltrans5.ltrans.o
 .text.chain_expr
                0x0042e8e8       0x48 /mnt/md0/miranda/openwrt/tmp/cca1aXTG.ltrans5.ltrans.o
 .text.chain_group
                0x0042e930      0x23c /mnt/md0/miranda/openwrt/tmp/cca1aXTG.ltrans5.ltrans.o
 .text.chain_loop
                0x0042eb6c       0x7c /mnt/md0/miranda/openwrt/tmp/cca1aXTG.ltrans5.ltrans.o
 .text.chain_until_rbrace
                0x0042ebe8       0x34 /mnt/md0/miranda/openwrt/tmp/cca1aXTG.ltrans5.ltrans.o
 .text.parse_program
                0x0042ec1c      0x170 /mnt/md0/miranda/openwrt/tmp/cca1aXTG.ltrans5.ltrans.o
 .text.awk_getline
                0x0042ed8c      0x20c /mnt/md0/miranda/openwrt/tmp/cca1aXTG.ltrans5.ltrans.o
 .text.as_regex
                0x0042ef98       0x60 /mnt/md0/miranda/openwrt/tmp/cca1aXTG.ltrans5.ltrans.o
 .text.awk_sub  0x0042eff8      0x1e4 /mnt/md0/miranda/openwrt/tmp/cca1aXTG.ltrans5.ltrans.o
 .text.do_match
                0x0042f1dc       0x90 /mnt/md0/miranda/openwrt/tmp/cca1aXTG.ltrans5.ltrans.o
 .text.ptest    0x0042f26c       0x1c /mnt/md0/miranda/openwrt/tmp/cca1aXTG.ltrans5.ltrans.o
 .text.awk_printf
                0x0042f288      0x1d8 /mnt/md0/miranda/openwrt/tmp/cca1aXTG.ltrans5.ltrans.o
 .text.next_column
                0x0042f460       0x2c /mnt/md0/miranda/openwrt/tmp/cca1aXTG.ltrans6.ltrans.o
 .text.what_reg
                0x0042f48c       0x20 /mnt/md0/miranda/openwrt/tmp/cca1aXTG.ltrans6.ltrans.o
 .text.dot_left
                0x0042f4ac       0x20 /mnt/md0/miranda/openwrt/tmp/cca1aXTG.ltrans6.ltrans.o
 .text.dot_right
                0x0042f4cc       0x20 /mnt/md0/miranda/openwrt/tmp/cca1aXTG.ltrans6.ltrans.o
 .text.dot_skip_over_ws
                0x0042f4ec       0x30 /mnt/md0/miranda/openwrt/tmp/cca1aXTG.ltrans6.ltrans.o
 .text.end_cmd_q
                0x0042f51c       0x18 /mnt/md0/miranda/openwrt/tmp/cca1aXTG.ltrans6.ltrans.o
 .text.indent_len
                0x0042f534       0x24 /mnt/md0/miranda/openwrt/tmp/cca1aXTG.ltrans6.ltrans.o
 .text.at_eof   0x0042f558       0x24 /mnt/md0/miranda/openwrt/tmp/cca1aXTG.ltrans6.ltrans.o
 .text.exec_actions
                0x0042f57c       0x50 /mnt/md0/miranda/openwrt/tmp/cca1aXTG.ltrans6.ltrans.o
 .text.func_type
                0x0042f5cc       0x14 /mnt/md0/miranda/openwrt/tmp/cca1aXTG.ltrans6.ltrans.o
 .text.func_perm
                0x0042f5e0       0x30 /mnt/md0/miranda/openwrt/tmp/cca1aXTG.ltrans6.ltrans.o
 .text.func_newer
                0x0042f610       0x1c /mnt/md0/miranda/openwrt/tmp/cca1aXTG.ltrans6.ltrans.o
 .text.func_user
                0x0042f62c        0xc /mnt/md0/miranda/openwrt/tmp/cca1aXTG.ltrans6.ltrans.o
 .text.func_group
                0x0042f638        0xc /mnt/md0/miranda/openwrt/tmp/cca1aXTG.ltrans6.ltrans.o
 .text.func_paren
                0x0042f644       0x14 /mnt/md0/miranda/openwrt/tmp/cca1aXTG.ltrans6.ltrans.o
 .text.func_size
                0x0042f658       0x40 /mnt/md0/miranda/openwrt/tmp/cca1aXTG.ltrans6.ltrans.o
 .text.func_prune
                0x0042f698        0x4 /mnt/md0/miranda/openwrt/tmp/cca1aXTG.ltrans6.ltrans.o
 .text.plus_minus_num
                0x0042f69c       0x10 /mnt/md0/miranda/openwrt/tmp/cca1aXTG.ltrans6.ltrans.o
 .text.cmp_main
                0x0042f6ac      0x178 /mnt/md0/miranda/openwrt/tmp/cca1aXTG.ltrans6.ltrans.o
                0x0042f6ad                cmp_main
 .text.sed_xfopen_w
                0x0042f824       0x50 /mnt/md0/miranda/openwrt/tmp/cca1aXTG.ltrans6.ltrans.o
 .text.cleanup_outname
                0x0042f874       0x18 /mnt/md0/miranda/openwrt/tmp/cca1aXTG.ltrans6.ltrans.o
 .text.parse_escapes
                0x0042f88c       0x68 /mnt/md0/miranda/openwrt/tmp/cca1aXTG.ltrans6.ltrans.o
 .text.copy_parsing_escapes
                0x0042f8f4       0x48 /mnt/md0/miranda/openwrt/tmp/cca1aXTG.ltrans6.ltrans.o
 .text.index_of_next_unescaped_regexp_delim
                0x0042f93c       0x70 /mnt/md0/miranda/openwrt/tmp/cca1aXTG.ltrans6.ltrans.o
 .text.parse_regex_delim
                0x0042f9ac       0x64 /mnt/md0/miranda/openwrt/tmp/cca1aXTG.ltrans6.ltrans.o
 .text.update_filename
                0x0042fa10       0x24 /mnt/md0/miranda/openwrt/tmp/cca1aXTG.ltrans6.ltrans.o
 .text.get_address.lto_priv.0
                0x0042fa34       0xa4 /mnt/md0/miranda/openwrt/tmp/cca1aXTG.ltrans6.ltrans.o
 .text.skip_thing
                0x0042fad8       0xc0 /mnt/md0/miranda/openwrt/tmp/cca1aXTG.ltrans6.ltrans.o
 .text.parse_file_cmd
                0x0042fb98       0x58 /mnt/md0/miranda/openwrt/tmp/cca1aXTG.ltrans6.ltrans.o
 .text.add_cmd  0x0042fbf0      0x400 /mnt/md0/miranda/openwrt/tmp/cca1aXTG.ltrans6.ltrans.o
 .text.pipe_putc
                0x0042fff0       0x44 /mnt/md0/miranda/openwrt/tmp/cca1aXTG.ltrans6.ltrans.o
 .text.alloc_action
                0x00430034       0x4c /mnt/md0/miranda/openwrt/tmp/cca1aXTG.ltrans6.ltrans.o
 .text.puts_maybe_newline
                0x00430080       0x68 /mnt/md0/miranda/openwrt/tmp/cca1aXTG.ltrans6.ltrans.o
 .text.flush_append
                0x004300e8       0x34 /mnt/md0/miranda/openwrt/tmp/cca1aXTG.ltrans6.ltrans.o
 .text.get_next_line
                0x0043011c       0xb0 /mnt/md0/miranda/openwrt/tmp/cca1aXTG.ltrans6.ltrans.o
 .text.add_cmd_block
                0x004301cc       0x38 /mnt/md0/miranda/openwrt/tmp/cca1aXTG.ltrans6.ltrans.o
 .text.find_pair
                0x00430204       0x60 /mnt/md0/miranda/openwrt/tmp/cca1aXTG.ltrans6.ltrans.o
 .text.func_regex
                0x00430264       0x30 /mnt/md0/miranda/openwrt/tmp/cca1aXTG.ltrans6.ltrans.o
 .text.process_files
                0x00430294      0x77c /mnt/md0/miranda/openwrt/tmp/cca1aXTG.ltrans6.ltrans.o
 .text.func_print
                0x00430a10       0x10 /mnt/md0/miranda/openwrt/tmp/cca1aXTG.ltrans6.ltrans.o
 .text.fileAction
                0x00430a20       0xb8 /mnt/md0/miranda/openwrt/tmp/cca1aXTG.ltrans6.ltrans.o
 .text.sed_main
                0x00430ad8      0x21c /mnt/md0/miranda/openwrt/tmp/cca1aXTG.ltrans6.ltrans.o
                0x00430ad9                sed_main
 .text.query_screen_dimensions
                0x00430cf4       0x38 /mnt/md0/miranda/openwrt/tmp/cca1aXTG.ltrans6.ltrans.o
 .text.mysleep  0x00430d2c       0x30 /mnt/md0/miranda/openwrt/tmp/cca1aXTG.ltrans6.ltrans.o
 .text.screen_erase
                0x00430d5c       0x18 /mnt/md0/miranda/openwrt/tmp/cca1aXTG.ltrans6.ltrans.o
 .text.new_screen
                0x00430d74       0x44 /mnt/md0/miranda/openwrt/tmp/cca1aXTG.ltrans6.ltrans.o
 .text.rawmode  0x00430db8       0x80 /mnt/md0/miranda/openwrt/tmp/cca1aXTG.ltrans6.ltrans.o
 .text.cookmode
                0x00430e38       0x20 /mnt/md0/miranda/openwrt/tmp/cca1aXTG.ltrans6.ltrans.o
 .text.place_cursor
                0x00430e58       0x4c /mnt/md0/miranda/openwrt/tmp/cca1aXTG.ltrans6.ltrans.o
 .text.go_bottom_and_clear_to_eol
                0x00430ea4       0x24 /mnt/md0/miranda/openwrt/tmp/cca1aXTG.ltrans6.ltrans.o
 .text.begin_line
                0x00430ec8       0x28 /mnt/md0/miranda/openwrt/tmp/cca1aXTG.ltrans6.ltrans.o
 .text.prev_line
                0x00430ef0       0x2c /mnt/md0/miranda/openwrt/tmp/cca1aXTG.ltrans6.ltrans.o
 .text.dot_prev
                0x00430f1c       0x18 /mnt/md0/miranda/openwrt/tmp/cca1aXTG.ltrans6.ltrans.o
 .text.get_column
                0x00430f34       0x20 /mnt/md0/miranda/openwrt/tmp/cca1aXTG.ltrans6.ltrans.o
 .text.dot_begin
                0x00430f54       0x18 /mnt/md0/miranda/openwrt/tmp/cca1aXTG.ltrans6.ltrans.o
 .text.move_to_col
                0x00430f6c       0x38 /mnt/md0/miranda/openwrt/tmp/cca1aXTG.ltrans6.ltrans.o
 .text.end_line
                0x00430fa4       0x28 /mnt/md0/miranda/openwrt/tmp/cca1aXTG.ltrans6.ltrans.o
 .text.next_line
                0x00430fcc       0x24 /mnt/md0/miranda/openwrt/tmp/cca1aXTG.ltrans6.ltrans.o
 .text.find_line
                0x00430ff0       0x20 /mnt/md0/miranda/openwrt/tmp/cca1aXTG.ltrans6.ltrans.o
 .text.dot_next
                0x00431010       0x18 /mnt/md0/miranda/openwrt/tmp/cca1aXTG.ltrans6.ltrans.o
 .text.end_screen
                0x00431028       0x2c /mnt/md0/miranda/openwrt/tmp/cca1aXTG.ltrans6.ltrans.o
 .text.dot_scroll
                0x00431054       0x5c /mnt/md0/miranda/openwrt/tmp/cca1aXTG.ltrans6.ltrans.o
 .text.count_lines
                0x004310b0       0x50 /mnt/md0/miranda/openwrt/tmp/cca1aXTG.ltrans6.ltrans.o
 .text.dot_end  0x00431100       0x18 /mnt/md0/miranda/openwrt/tmp/cca1aXTG.ltrans6.ltrans.o
 .text.refresh  0x00431118      0x36c /mnt/md0/miranda/openwrt/tmp/cca1aXTG.ltrans6.ltrans.o
 .text.text_hole_make
                0x00431484       0x88 /mnt/md0/miranda/openwrt/tmp/cca1aXTG.ltrans6.ltrans.o
 .text.string_insert
                0x0043150c       0x44 /mnt/md0/miranda/openwrt/tmp/cca1aXTG.ltrans6.ltrans.o
 .text.text_hole_delete
                0x00431550       0x68 /mnt/md0/miranda/openwrt/tmp/cca1aXTG.ltrans6.ltrans.o
 .text.readit   0x004315b8       0x54 /mnt/md0/miranda/openwrt/tmp/cca1aXTG.ltrans6.ltrans.o
 .text.get_one_char
                0x0043160c       0x5c /mnt/md0/miranda/openwrt/tmp/cca1aXTG.ltrans6.ltrans.o
 .text.Hit_Return
                0x00431668       0x40 /mnt/md0/miranda/openwrt/tmp/cca1aXTG.ltrans6.ltrans.o
 .text.show_status_line
                0x004316a8      0x13c /mnt/md0/miranda/openwrt/tmp/cca1aXTG.ltrans6.ltrans.o
 .text.redraw   0x004317e4       0x34 /mnt/md0/miranda/openwrt/tmp/cca1aXTG.ltrans6.ltrans.o
 .text.indicate_error
                0x00431818       0x54 /mnt/md0/miranda/openwrt/tmp/cca1aXTG.ltrans6.ltrans.o
 .text.bound_dot
                0x0043186c       0x30 /mnt/md0/miranda/openwrt/tmp/cca1aXTG.ltrans6.ltrans.o
 .text.char_insert
                0x0043189c      0x2e0 /mnt/md0/miranda/openwrt/tmp/cca1aXTG.ltrans6.ltrans.o
 .text.get_input_line
                0x00431b7c       0xbc /mnt/md0/miranda/openwrt/tmp/cca1aXTG.ltrans6.ltrans.o
 .text.status_line
                0x00431c38       0x24 /mnt/md0/miranda/openwrt/tmp/cca1aXTG.ltrans6.ltrans.o
 .text.status_line_bold
                0x00431c5c       0x58 /mnt/md0/miranda/openwrt/tmp/cca1aXTG.ltrans6.ltrans.o
 .text.not_implemented
                0x00431cb4       0x64 /mnt/md0/miranda/openwrt/tmp/cca1aXTG.ltrans6.ltrans.o
 .text.yank_delete
                0x00431d18       0x44 /mnt/md0/miranda/openwrt/tmp/cca1aXTG.ltrans6.ltrans.o
 .text.init_text_buffer
                0x00431d5c       0x5c /mnt/md0/miranda/openwrt/tmp/cca1aXTG.ltrans6.ltrans.o
 .text.file_write
                0x00431db8       0x64 /mnt/md0/miranda/openwrt/tmp/cca1aXTG.ltrans6.ltrans.o
 .text.mycmp    0x00431e1c       0x24 /mnt/md0/miranda/openwrt/tmp/cca1aXTG.ltrans6.ltrans.o
 .text.char_search
                0x00431e40       0x70 /mnt/md0/miranda/openwrt/tmp/cca1aXTG.ltrans6.ltrans.o
 .text.func_print0
                0x00431eb0       0x18 /mnt/md0/miranda/openwrt/tmp/cca1aXTG.ltrans6.ltrans.o
 .text.print_line
                0x00431ec8       0x80 /mnt/md0/miranda/openwrt/tmp/cca1aXTG.ltrans6.ltrans.o
 .text.colon    0x00431f48      0xcac /mnt/md0/miranda/openwrt/tmp/cca1aXTG.ltrans6.ltrans.o
 .text.do_cmd   0x00432bf4      0xe9c /mnt/md0/miranda/openwrt/tmp/cca1aXTG.ltrans6.ltrans.o
 .text.find_range
                0x00433a90      0x234 /mnt/md0/miranda/openwrt/tmp/cca1aXTG.ltrans6.ltrans.o
 .text.run_cmds
                0x00433cc4       0x48 /mnt/md0/miranda/openwrt/tmp/cca1aXTG.ltrans6.ltrans.o
 .text.winch_handler
                0x00433d0c       0x3c /mnt/md0/miranda/openwrt/tmp/cca1aXTG.ltrans6.ltrans.o
 .text.tstp_handler
                0x00433d48       0x44 /mnt/md0/miranda/openwrt/tmp/cca1aXTG.ltrans6.ltrans.o
 .text.int_handler
                0x00433d8c       0x24 /mnt/md0/miranda/openwrt/tmp/cca1aXTG.ltrans6.ltrans.o
 .text.edit_file
                0x00433db0      0x1f4 /mnt/md0/miranda/openwrt/tmp/cca1aXTG.ltrans6.ltrans.o
 .text.vi_main  0x00433fa4      0x168 /mnt/md0/miranda/openwrt/tmp/cca1aXTG.ltrans6.ltrans.o
                0x00433fa5                vi_main
 .text.func_path
                0x0043410c       0x18 /mnt/md0/miranda/openwrt/tmp/cca1aXTG.ltrans6.ltrans.o
 .text.func_name
                0x00434124       0x64 /mnt/md0/miranda/openwrt/tmp/cca1aXTG.ltrans6.ltrans.o
 .text.time_cmp
                0x00434188       0x90 /mnt/md0/miranda/openwrt/tmp/cca1aXTG.ltrans6.ltrans.o
 .text.func_mtime
                0x00434218       0x1c /mnt/md0/miranda/openwrt/tmp/cca1aXTG.ltrans6.ltrans.o
 .text.func_mmin
                0x00434234       0x18 /mnt/md0/miranda/openwrt/tmp/cca1aXTG.ltrans6.ltrans.o
 .text.func_exec
                0x0043424c      0x118 /mnt/md0/miranda/openwrt/tmp/cca1aXTG.ltrans6.ltrans.o
 .text.parse_params
                0x00434364      0x440 /mnt/md0/miranda/openwrt/tmp/cca1aXTG.ltrans6.ltrans.o
 .text.find_main
                0x004347a4      0x164 /mnt/md0/miranda/openwrt/tmp/cca1aXTG.ltrans6.ltrans.o
                0x004347a5                find_main
 .text.grep_file
                0x00434908      0x3cc /mnt/md0/miranda/openwrt/tmp/cca1aXTG.ltrans6.ltrans.o
 .text.file_action_grep
                0x00434cd4       0x88 /mnt/md0/miranda/openwrt/tmp/cca1aXTG.ltrans6.ltrans.o
 .text.load_pattern_list
                0x00434d5c       0x2c /mnt/md0/miranda/openwrt/tmp/cca1aXTG.ltrans6.ltrans.o
 .text.grep_main
                0x00434d88      0x2f0 /mnt/md0/miranda/openwrt/tmp/cca1aXTG.ltrans6.ltrans.o
                0x00434d89                grep_main
 .text.store_param.lto_priv.0
                0x00435078       0x34 /mnt/md0/miranda/openwrt/tmp/cca1aXTG.ltrans6.ltrans.o
                0x00435079                store_param.lto_priv.0
 .text.process_stdin.lto_priv.0
                0x004350ac       0xf4 /mnt/md0/miranda/openwrt/tmp/cca1aXTG.ltrans6.ltrans.o
                0x004350ad                process_stdin.lto_priv.0
 .text.process0_stdin.lto_priv.0
                0x004351a0       0x64 /mnt/md0/miranda/openwrt/tmp/cca1aXTG.ltrans6.ltrans.o
                0x004351a1                process0_stdin.lto_priv.0
 .text.askpass_timeout
                0x00435204        0x4 /mnt/md0/miranda/openwrt/tmp/cca1aXTG.ltrans7.ltrans.o
 .text.sha1_process_block64
                0x00435208      0x184 /mnt/md0/miranda/openwrt/tmp/cca1aXTG.ltrans7.ltrans.o
 .text.sha256_process_block64.lto_priv.0
                0x0043538c      0x17c /mnt/md0/miranda/openwrt/tmp/cca1aXTG.ltrans7.ltrans.o
                0x0043538d                sha256_process_block64.lto_priv.0
 .text.in_ether
                0x00435508       0x6c /mnt/md0/miranda/openwrt/tmp/cca1aXTG.ltrans7.ltrans.o
                0x00435509                in_ether
 .text.remove_chunk
                0x00435574       0x18 /mnt/md0/miranda/openwrt/tmp/cca1aXTG.ltrans7.ltrans.o
 .text.fast_strtoul_10
                0x0043558c       0x24 /mnt/md0/miranda/openwrt/tmp/cca1aXTG.ltrans7.ltrans.o
 .text.true_action.lto_priv.0
                0x004355b0        0x4 /mnt/md0/miranda/openwrt/tmp/cca1aXTG.ltrans7.ltrans.o
                0x004355b1                true_action.lto_priv.0
 .text.build_match_prefix
                0x004355b4      0x1e0 /mnt/md0/miranda/openwrt/tmp/cca1aXTG.ltrans7.ltrans.o
 .text.bb_ask_y_confirmation_FILE
                0x00435794       0x48 /mnt/md0/miranda/openwrt/tmp/cca1aXTG.ltrans7.ltrans.o
 .text.uid2uname_utoa
                0x004357dc       0x18 /mnt/md0/miranda/openwrt/tmp/cca1aXTG.ltrans7.ltrans.o
                0x004357dd                uid2uname_utoa
 .text.gid2group_utoa
                0x004357f4       0x18 /mnt/md0/miranda/openwrt/tmp/cca1aXTG.ltrans7.ltrans.o
                0x004357f5                gid2group_utoa
 .text.xgroup2gid
                0x0043580c       0x1c /mnt/md0/miranda/openwrt/tmp/cca1aXTG.ltrans7.ltrans.o
                0x0043580d                xgroup2gid
 .text.get_ug_id
                0x00435828       0x24 /mnt/md0/miranda/openwrt/tmp/cca1aXTG.ltrans7.ltrans.o
 .text.quote_special_chars
                0x0043584c       0x4c /mnt/md0/miranda/openwrt/tmp/cca1aXTG.ltrans7.ltrans.o
 .text.next     0x00435898      0x100 /mnt/md0/miranda/openwrt/tmp/cca1aXTG.ltrans7.ltrans.o
 .text.bb_pstrcmp
                0x00435998       0x10 /mnt/md0/miranda/openwrt/tmp/cca1aXTG.ltrans7.ltrans.o
 .text.common64_end
                0x004359a8       0x68 /mnt/md0/miranda/openwrt/tmp/cca1aXTG.ltrans7.ltrans.o
 .text.sha1_end
                0x00435a10       0x4c /mnt/md0/miranda/openwrt/tmp/cca1aXTG.ltrans7.ltrans.o
                0x00435a11                sha1_end
 .text.md5_process_block64.lto_priv.0
                0x00435a5c      0x36c /mnt/md0/miranda/openwrt/tmp/cca1aXTG.ltrans7.ltrans.o
                0x00435a5d                md5_process_block64.lto_priv.0
 .text.md5_end  0x00435dc8       0x58 /mnt/md0/miranda/openwrt/tmp/cca1aXTG.ltrans7.ltrans.o
                0x00435dc9                md5_end
 .text.save_command_ps_at_cur_history
                0x00435e20       0x38 /mnt/md0/miranda/openwrt/tmp/cca1aXTG.ltrans7.ltrans.o
 .text.get_user_strings
                0x00435e58       0x34 /mnt/md0/miranda/openwrt/tmp/cca1aXTG.ltrans7.ltrans.o
 .text.get_homedir_or_NULL
                0x00435e8c       0x3c /mnt/md0/miranda/openwrt/tmp/cca1aXTG.ltrans7.ltrans.o
 .text.string_checker_helper
                0x00435ec8       0x2c /mnt/md0/miranda/openwrt/tmp/cca1aXTG.ltrans7.ltrans.o
 .text.read_to_buf
                0x00435ef4       0x40 /mnt/md0/miranda/openwrt/tmp/cca1aXTG.ltrans7.ltrans.o
 .text.fopen_for_read
                0x00435f34       0x14 /mnt/md0/miranda/openwrt/tmp/cca1aXTG.ltrans7.ltrans.o
                0x00435f35                fopen_for_read
 .text.get_uidgid
                0x00435f48       0xbc /mnt/md0/miranda/openwrt/tmp/cca1aXTG.ltrans7.ltrans.o
 .text.bb_perror_nomsg_and_die
                0x00436004        0xc /mnt/md0/miranda/openwrt/tmp/cca1aXTG.ltrans7.ltrans.o
                0x00436005                bb_perror_nomsg_and_die
 .text.halt_main
                0x00436010       0x84 /mnt/md0/miranda/openwrt/tmp/cca1aXTG.ltrans7.ltrans.o
                0x00436011                halt_main
 .text.bb_ask_y_confirmation
                0x00436094       0x14 /mnt/md0/miranda/openwrt/tmp/cca1aXTG.ltrans7.ltrans.o
                0x00436095                bb_ask_y_confirmation
 .text.ask_and_unlink
                0x004360a8       0x64 /mnt/md0/miranda/openwrt/tmp/cca1aXTG.ltrans7.ltrans.o
 .text.auto_string
                0x0043610c       0x34 /mnt/md0/miranda/openwrt/tmp/cca1aXTG.ltrans7.ltrans.o
                0x0043610d                auto_string
 .text.xgetpwnam
                0x00436140       0x1c /mnt/md0/miranda/openwrt/tmp/cca1aXTG.ltrans7.ltrans.o
                0x00436141                xgetpwnam
 .text.xuname2uid
                0x0043615c       0x10 /mnt/md0/miranda/openwrt/tmp/cca1aXTG.ltrans7.ltrans.o
                0x0043615d                xuname2uid
 .text.xgetpwuid
                0x0043616c       0x1c /mnt/md0/miranda/openwrt/tmp/cca1aXTG.ltrans7.ltrans.o
                0x0043616d                xgetpwuid
 .text.change_identity
                0x00436188       0x4c /mnt/md0/miranda/openwrt/tmp/cca1aXTG.ltrans7.ltrans.o
                0x00436189                change_identity
 .text.concat_subpath_file
                0x004361d4       0x24 /mnt/md0/miranda/openwrt/tmp/cca1aXTG.ltrans7.ltrans.o
                0x004361d5                concat_subpath_file
 .text.get_passwd.lto_priv.0
                0x004361f8       0x40 /mnt/md0/miranda/openwrt/tmp/cca1aXTG.ltrans7.ltrans.o
                0x004361f9                get_passwd.lto_priv.0
 .text.crc32_new_table_le
                0x00436238       0x3c /mnt/md0/miranda/openwrt/tmp/cca1aXTG.ltrans7.ltrans.o
                0x00436239                crc32_new_table_le
 .text.rewrite.lto_priv.0
                0x00436274      0x314 /mnt/md0/miranda/openwrt/tmp/cca1aXTG.ltrans7.ltrans.o
                0x00436275                rewrite.lto_priv.0
 .text.endofname
                0x00436588       0x30 /mnt/md0/miranda/openwrt/tmp/cca1aXTG.ltrans7.ltrans.o
                0x00436589                endofname
 .text.fclose_if_not_stdin
                0x004365b8       0x34 /mnt/md0/miranda/openwrt/tmp/cca1aXTG.ltrans7.ltrans.o
                0x004365b9                fclose_if_not_stdin
 .text.fflush_stdout_and_exit
                0x004365ec       0x2c /mnt/md0/miranda/openwrt/tmp/cca1aXTG.ltrans7.ltrans.o
                0x004365ed                fflush_stdout_and_exit
 .text.fflush_stdout_and_exit_SUCCESS
                0x00436618        0x8 /mnt/md0/miranda/openwrt/tmp/cca1aXTG.ltrans7.ltrans.o
                0x00436619                fflush_stdout_and_exit_SUCCESS
 .text.find_mount_point
                0x00436620       0xbc /mnt/md0/miranda/openwrt/tmp/cca1aXTG.ltrans7.ltrans.o
                0x00436621                find_mount_point
 .text.bb_get_chunk_from_file
                0x004366dc       0x64 /mnt/md0/miranda/openwrt/tmp/cca1aXTG.ltrans7.ltrans.o
                0x004366dd                bb_get_chunk_from_file
 .text.xmalloc_fgetline
                0x00436740       0x20 /mnt/md0/miranda/openwrt/tmp/cca1aXTG.ltrans7.ltrans.o
                0x00436741                xmalloc_fgetline
 .text.get_shell_name
                0x00436760       0x3c /mnt/md0/miranda/openwrt/tmp/cca1aXTG.ltrans7.ltrans.o
                0x00436761                get_shell_name
 .text.make_all_argv_opts
                0x0043679c       0x3c /mnt/md0/miranda/openwrt/tmp/cca1aXTG.ltrans7.ltrans.o
                0x0043679d                make_all_argv_opts
 .text.md5_hash
                0x004367d8       0x78 /mnt/md0/miranda/openwrt/tmp/cca1aXTG.ltrans7.ltrans.o
                0x004367d9                md5_hash
 .text.make_human_readable_str
                0x00436850       0xc4 /mnt/md0/miranda/openwrt/tmp/cca1aXTG.ltrans7.ltrans.o
                0x00436851                make_human_readable_str
 .text.inet_cksum
                0x00436914       0x30 /mnt/md0/miranda/openwrt/tmp/cca1aXTG.ltrans7.ltrans.o
                0x00436915                inet_cksum
 .text.INET_resolve
                0x00436944       0x64 /mnt/md0/miranda/openwrt/tmp/cca1aXTG.ltrans7.ltrans.o
                0x00436945                INET_resolve
 .text.INET6_resolve
                0x004369a8       0x70 /mnt/md0/miranda/openwrt/tmp/cca1aXTG.ltrans7.ltrans.o
                0x004369a9                INET6_resolve
 .text.is_in_ino_dev_hashtable
                0x00436a18       0x78 /mnt/md0/miranda/openwrt/tmp/cca1aXTG.ltrans7.ltrans.o
                0x00436a19                is_in_ino_dev_hashtable
 .text.add_to_ino_dev_hashtable
                0x00436a90       0x8c /mnt/md0/miranda/openwrt/tmp/cca1aXTG.ltrans7.ltrans.o
                0x00436a91                add_to_ino_dev_hashtable
 .text.iterate_on_dir
                0x00436b1c       0x34 /mnt/md0/miranda/openwrt/tmp/cca1aXTG.ltrans7.ltrans.o
                0x00436b1d                iterate_on_dir
 .text.deinit_S.lto_priv.0
                0x00436b50       0x28 /mnt/md0/miranda/openwrt/tmp/cca1aXTG.ltrans7.ltrans.o
                0x00436b51                deinit_S.lto_priv.0
 .text.free_tab_completion_data.lto_priv.0
                0x00436b78       0x30 /mnt/md0/miranda/openwrt/tmp/cca1aXTG.ltrans7.ltrans.o
                0x00436b79                free_tab_completion_data.lto_priv.0
 .text.sanitize_env_if_suid
                0x00436ba8       0x44 /mnt/md0/miranda/openwrt/tmp/cca1aXTG.ltrans7.ltrans.o
                0x00436ba9                sanitize_env_if_suid
 .text.bb_make_directory
                0x00436bec      0x114 /mnt/md0/miranda/openwrt/tmp/cca1aXTG.ltrans7.ltrans.o
                0x00436bed                bb_make_directory
 .text.fstype_matches
                0x00436d00       0x44 /mnt/md0/miranda/openwrt/tmp/cca1aXTG.ltrans7.ltrans.o
                0x00436d01                fstype_matches
 .text.bb_mode_string
                0x00436d44       0x88 /mnt/md0/miranda/openwrt/tmp/cca1aXTG.ltrans7.ltrans.o
                0x00436d45                bb_mode_string
 .text.nuke_str
                0x00436dcc       0x10 /mnt/md0/miranda/openwrt/tmp/cca1aXTG.ltrans7.ltrans.o
                0x00436dcd                nuke_str
 .text.string_checker.lto_priv.0
                0x00436ddc       0x5c /mnt/md0/miranda/openwrt/tmp/cca1aXTG.ltrans7.ltrans.o
                0x00436ddd                string_checker.lto_priv.0
 .text.config_open2
                0x00436e38       0x1c /mnt/md0/miranda/openwrt/tmp/cca1aXTG.ltrans7.ltrans.o
                0x00436e39                config_open2
 .text.config_close
                0x00436e54       0x24 /mnt/md0/miranda/openwrt/tmp/cca1aXTG.ltrans7.ltrans.o
                0x00436e55                config_close
 .text.bb_parse_mode
                0x00436e78      0x168 /mnt/md0/miranda/openwrt/tmp/cca1aXTG.ltrans7.ltrans.o
                0x00436e79                bb_parse_mode
 .text.write_pidfile
                0x00436fe0       0x70 /mnt/md0/miranda/openwrt/tmp/cca1aXTG.ltrans7.ltrans.o
                0x00436fe1                write_pidfile
 .text.printable_string2
                0x00437050       0x4c /mnt/md0/miranda/openwrt/tmp/cca1aXTG.ltrans7.ltrans.o
                0x00437051                printable_string2
 .text.bb_process_escape_sequence
                0x0043709c       0x7c /mnt/md0/miranda/openwrt/tmp/cca1aXTG.ltrans7.ltrans.o
                0x0043709d                bb_process_escape_sequence
 .text.read_cmdline
                0x00437118       0xdc /mnt/md0/miranda/openwrt/tmp/cca1aXTG.ltrans7.ltrans.o
                0x00437119                read_cmdline
 .text.i64c.lto_priv.0
                0x004371f4       0x28 /mnt/md0/miranda/openwrt/tmp/cca1aXTG.ltrans7.ltrans.o
                0x004371f5                i64c.lto_priv.0
 .text.pw_encrypt
                0x0043721c       0x28 /mnt/md0/miranda/openwrt/tmp/cca1aXTG.ltrans7.ltrans.o
                0x0043721d                pw_encrypt
 .text.xread    0x00437244       0x20 /mnt/md0/miranda/openwrt/tmp/cca1aXTG.ltrans7.ltrans.o
                0x00437245                xread
 .text.recursive_action1.lto_priv.0
                0x00437264      0x114 /mnt/md0/miranda/openwrt/tmp/cca1aXTG.ltrans7.ltrans.o
                0x00437265                recursive_action1.lto_priv.0
 .text.remove_file
                0x00437378      0x184 /mnt/md0/miranda/openwrt/tmp/cca1aXTG.ltrans7.ltrans.o
                0x00437379                remove_file
 .text.rtc_xopen
                0x004374fc       0x80 /mnt/md0/miranda/openwrt/tmp/cca1aXTG.ltrans7.ltrans.o
                0x004374fd                rtc_xopen
 .text.safe_gethostname
                0x0043757c       0x2c /mnt/md0/miranda/openwrt/tmp/cca1aXTG.ltrans7.ltrans.o
                0x0043757d                safe_gethostname
 .text.safe_poll
                0x004375a8       0x44 /mnt/md0/miranda/openwrt/tmp/cca1aXTG.ltrans7.ltrans.o
                0x004375a9                safe_poll
 .text.read_key
                0x004375ec      0x1dc /mnt/md0/miranda/openwrt/tmp/cca1aXTG.ltrans7.ltrans.o
                0x004375ed                read_key
 .text.nonblock_immune_read
                0x004377c8       0x3c /mnt/md0/miranda/openwrt/tmp/cca1aXTG.ltrans7.ltrans.o
                0x004377c9                nonblock_immune_read
 .text.setup_environment
                0x00437804       0xb4 /mnt/md0/miranda/openwrt/tmp/cca1aXTG.ltrans7.ltrans.o
                0x00437805                setup_environment
 .text.skip_whitespace
                0x004378b8       0x14 /mnt/md0/miranda/openwrt/tmp/cca1aXTG.ltrans7.ltrans.o
                0x004378b9                skip_whitespace
 .text.bb_dump_add
                0x004378cc      0x128 /mnt/md0/miranda/openwrt/tmp/cca1aXTG.ltrans7.ltrans.o
                0x004378cd                bb_dump_add
 .text.config_read
                0x004379f4      0x220 /mnt/md0/miranda/openwrt/tmp/cca1aXTG.ltrans7.ltrans.o
                0x004379f5                config_read
 .text.skip_non_whitespace
                0x00437c14       0x1c /mnt/md0/miranda/openwrt/tmp/cca1aXTG.ltrans7.ltrans.o
                0x00437c15                skip_non_whitespace
 .text.trim     0x00437c30       0x4c /mnt/md0/miranda/openwrt/tmp/cca1aXTG.ltrans7.ltrans.o
                0x00437c31                trim
 .text.get_signum
                0x00437c7c       0x50 /mnt/md0/miranda/openwrt/tmp/cca1aXTG.ltrans7.ltrans.o
                0x00437c7d                get_signum
 .text.fopen_or_warn
                0x00437ccc       0x18 /mnt/md0/miranda/openwrt/tmp/cca1aXTG.ltrans7.ltrans.o
                0x00437ccd                fopen_or_warn
 .text.fopen_or_warn_stdin
                0x00437ce4       0x30 /mnt/md0/miranda/openwrt/tmp/cca1aXTG.ltrans7.ltrans.o
                0x00437ce5                fopen_or_warn_stdin
 .text.xfopen_for_read
                0x00437d14       0x14 /mnt/md0/miranda/openwrt/tmp/cca1aXTG.ltrans7.ltrans.o
                0x00437d15                xfopen_for_read
 .text.xargs_main
                0x00437d28      0x2a0 /mnt/md0/miranda/openwrt/tmp/cca1aXTG.ltrans7.ltrans.o
                0x00437d29                xargs_main
 .text.xfdopen_helper.lto_priv.0
                0x00437fc8       0x28 /mnt/md0/miranda/openwrt/tmp/cca1aXTG.ltrans7.ltrans.o
                0x00437fc9                xfdopen_helper.lto_priv.0
 .text.xfopen_stdin
                0x00437ff0       0x14 /mnt/md0/miranda/openwrt/tmp/cca1aXTG.ltrans7.ltrans.o
                0x00437ff1                xfopen_stdin
 .text.open_or_warn_stdin
                0x00438004       0x28 /mnt/md0/miranda/openwrt/tmp/cca1aXTG.ltrans7.ltrans.o
                0x00438005                open_or_warn_stdin
 .text.bb_cat   0x0043802c       0x48 /mnt/md0/miranda/openwrt/tmp/cca1aXTG.ltrans7.ltrans.o
                0x0043802d                bb_cat
 .text.setsockopt_int
                0x00438074       0x14 /mnt/md0/miranda/openwrt/tmp/cca1aXTG.ltrans7.ltrans.o
                0x00438075                setsockopt_int
 .text.setsockopt_SOL_SOCKET_1
                0x00438088       0x14 /mnt/md0/miranda/openwrt/tmp/cca1aXTG.ltrans7.ltrans.o
                0x00438089                setsockopt_SOL_SOCKET_1
 .text.get_sock_lsa
                0x0043809c       0x78 /mnt/md0/miranda/openwrt/tmp/cca1aXTG.ltrans7.ltrans.o
                0x0043809d                get_sock_lsa
 .text.xconnect
                0x00438114       0x38 /mnt/md0/miranda/openwrt/tmp/cca1aXTG.ltrans7.ltrans.o
                0x00438115                xconnect
 .text.set_nport
                0x0043814c       0x14 /mnt/md0/miranda/openwrt/tmp/cca1aXTG.ltrans7.ltrans.o
                0x0043814d                set_nport
 .text.str2sockaddr.lto_priv.0
                0x00438160      0x1e8 /mnt/md0/miranda/openwrt/tmp/cca1aXTG.ltrans7.ltrans.o
                0x00438161                str2sockaddr.lto_priv.0
 .text.sockaddr2str.lto_priv.0
                0x00438348       0x74 /mnt/md0/miranda/openwrt/tmp/cca1aXTG.ltrans7.ltrans.o
                0x00438349                sockaddr2str.lto_priv.0
 .text.xmalloc_sockaddr2dotted_noport
                0x004383bc       0x10 /mnt/md0/miranda/openwrt/tmp/cca1aXTG.ltrans7.ltrans.o
                0x004383bd                xmalloc_sockaddr2dotted_noport
 .text.INET_rresolve
                0x004383cc       0xe0 /mnt/md0/miranda/openwrt/tmp/cca1aXTG.ltrans7.ltrans.o
                0x004383cd                INET_rresolve
 .text.xmalloc_readlink
                0x004384ac       0x3c /mnt/md0/miranda/openwrt/tmp/cca1aXTG.ltrans7.ltrans.o
                0x004384ad                xmalloc_readlink
 .text.procps_scan
                0x004384e8      0x29c /mnt/md0/miranda/openwrt/tmp/cca1aXTG.ltrans7.ltrans.o
                0x004384e9                procps_scan
 .text.update_passwd
                0x00438784      0x304 /mnt/md0/miranda/openwrt/tmp/cca1aXTG.ltrans7.ltrans.o
                0x00438785                update_passwd
 .text.xmalloc_readlink_or_warn
                0x00438a88       0x3c /mnt/md0/miranda/openwrt/tmp/cca1aXTG.ltrans7.ltrans.o
                0x00438a89                xmalloc_readlink_or_warn
 .text.copy_file
                0x00438ac4      0x4d8 /mnt/md0/miranda/openwrt/tmp/cca1aXTG.ltrans7.ltrans.o
                0x00438ac5                copy_file
 .text.xmalloc_realpath
                0x00438f9c       0x20 /mnt/md0/miranda/openwrt/tmp/cca1aXTG.ltrans7.ltrans.o
                0x00438f9d                xmalloc_realpath
 .text.xrealloc_vector_helper
                0x00438fbc       0x44 /mnt/md0/miranda/openwrt/tmp/cca1aXTG.ltrans7.ltrans.o
                0x00438fbd                xrealloc_vector_helper
 .text.find_pid_by_name
                0x00439000       0xbc /mnt/md0/miranda/openwrt/tmp/cca1aXTG.ltrans7.ltrans.o
                0x00439001                find_pid_by_name
 .text.add_match
                0x004390bc       0x44 /mnt/md0/miranda/openwrt/tmp/cca1aXTG.ltrans7.ltrans.o
 .text.complete_cmd_dir_file
                0x00439100      0x23c /mnt/md0/miranda/openwrt/tmp/cca1aXTG.ltrans7.ltrans.o
 .text.get_cached.lto_priv.0
                0x0043933c       0x74 /mnt/md0/miranda/openwrt/tmp/cca1aXTG.ltrans7.ltrans.o
                0x0043933d                get_cached.lto_priv.0
 .text.xregcomp
                0x004393b0       0x44 /mnt/md0/miranda/openwrt/tmp/cca1aXTG.ltrans7.ltrans.o
                0x004393b1                xregcomp
 .text.parse_chown_usergroup_or_die
                0x004393f4       0x6c /mnt/md0/miranda/openwrt/tmp/cca1aXTG.ltrans7.ltrans.o
                0x004393f5                parse_chown_usergroup_or_die
 .text.setup_transformer_on_fd.constprop.0
                0x00439460       0x44 /mnt/md0/miranda/openwrt/tmp/cca1aXTG.ltrans7.ltrans.o
                0x00439461                setup_transformer_on_fd.constprop.0
 .text.redirectsafe.constprop.0
                0x004394a4       0x6c /mnt/md0/miranda/openwrt/tmp/cca1aXTG.ltrans7.ltrans.o
                0x004394a5                redirectsafe.constprop.0
 .text.xrealloc_getcwd_or_warn.constprop.0
                0x00439510       0x5c /mnt/md0/miranda/openwrt/tmp/cca1aXTG.ltrans7.ltrans.o
                0x00439511                xrealloc_getcwd_or_warn.constprop.0
 .text.bb_simplify_path
                0x0043956c       0x88 /mnt/md0/miranda/openwrt/tmp/cca1aXTG.ltrans7.ltrans.o
                0x0043956d                bb_simplify_path
 .text.xmalloc_realpath_coreutils
                0x004395f4      0x10c /mnt/md0/miranda/openwrt/tmp/cca1aXTG.ltrans7.ltrans.o
                0x004395f5                xmalloc_realpath_coreutils
 .text.ash_msg_and_raise.constprop.0
                0x00439700       0x20 /mnt/md0/miranda/openwrt/tmp/cca1aXTG.ltrans7.ltrans.o
                0x00439701                ash_msg_and_raise.constprop.0
 .text.listvars.constprop.0
                0x00439720       0x7c /mnt/md0/miranda/openwrt/tmp/cca1aXTG.ltrans7.ltrans.o
                0x00439721                listvars.constprop.0
 .text.legal_pathopt.constprop.0
                0x0043979c       0x2c /mnt/md0/miranda/openwrt/tmp/cca1aXTG.ltrans7.ltrans.o
                0x0043979d                legal_pathopt.constprop.0
 .text.xmalloc_read.constprop.0
                0x004397c8       0x94 /mnt/md0/miranda/openwrt/tmp/cca1aXTG.ltrans7.ltrans.o
                0x004397c9                xmalloc_read.constprop.0
 .text.smart_ulltoa5.constprop.0
                0x0043985c      0x178 /mnt/md0/miranda/openwrt/tmp/cca1aXTG.ltrans7.ltrans.o
                0x0043985d                smart_ulltoa5.constprop.0
 .text.udhcp_option_idx.constprop.0
                0x004399d4       0x58 /mnt/md0/miranda/openwrt/tmp/cca1aXTG.ltrans7.ltrans.o
                0x004399d5                udhcp_option_idx.constprop.0
 .text.udhcp_insert_new_option.constprop.0
                0x00439a2c       0x48 /mnt/md0/miranda/openwrt/tmp/cca1aXTG.ltrans7.ltrans.o
                0x00439a2d                udhcp_insert_new_option.constprop.0
 .text.attach_option.constprop.0
                0x00439a74      0x1ec /mnt/md0/miranda/openwrt/tmp/cca1aXTG.ltrans7.ltrans.o
                0x00439a75                attach_option.constprop.0
 .text.udhcp_send_raw_packet.constprop.0
                0x00439c60      0x1a8 /mnt/md0/miranda/openwrt/tmp/cca1aXTG.ltrans7.ltrans.o
                0x00439c61                udhcp_send_raw_packet.constprop.0
 .text.ll_addr_n2a.constprop.0
                0x00439e08       0x8c /mnt/md0/miranda/openwrt/tmp/cca1aXTG.ltrans7.ltrans.o
                0x00439e09                ll_addr_n2a.constprop.0
 .text.sendping_tail.constprop.0
                0x00439e94       0xe0 /mnt/md0/miranda/openwrt/tmp/cca1aXTG.ltrans7.ltrans.o
                0x00439e95                sendping_tail.constprop.0
 .text.recv_from_to.constprop.0
                0x00439f74       0xc4 /mnt/md0/miranda/openwrt/tmp/cca1aXTG.ltrans7.ltrans.o
                0x00439f75                recv_from_to.constprop.0
 .text.xsocket_type.constprop.0
                0x0043a038       0x5c /mnt/md0/miranda/openwrt/tmp/cca1aXTG.ltrans7.ltrans.o
                0x0043a039                xsocket_type.constprop.0
 .text.if_readlist_proc.constprop.0
                0x0043a094      0x1ac /mnt/md0/miranda/openwrt/tmp/cca1aXTG.ltrans7.ltrans.o
                0x0043a095                if_readlist_proc.constprop.0
 .text.log7.constprop.0
                0x0043a240       0x24 /mnt/md0/miranda/openwrt/tmp/cca1aXTG.ltrans7.ltrans.o
                0x0043a241                log7.constprop.0
 .text.xstrtoull_range_sfx.constprop.0
                0x0043a264       0xd4 /mnt/md0/miranda/openwrt/tmp/cca1aXTG.ltrans7.ltrans.o
                0x0043a265                xstrtoull_range_sfx.constprop.0
 .text.rta_addattr32.constprop.0.isra.0
                0x0043a338       0x58 /mnt/md0/miranda/openwrt/tmp/cca1aXTG.ltrans7.ltrans.o
                0x0043a339                rta_addattr32.constprop.0.isra.0
 .text.setsockopt_1.isra.0
                0x0043a390        0xc /mnt/md0/miranda/openwrt/tmp/cca1aXTG.ltrans7.ltrans.o
                0x0043a391                setsockopt_1.isra.0
 .text.del_loop.isra.0
                0x0043a39c       0x24 /mnt/md0/miranda/openwrt/tmp/cca1aXTG.ltrans7.ltrans.o
                0x0043a39d                del_loop.isra.0
 .text.bb_dump_size.isra.0
                0x0043a3c0       0xe8 /mnt/md0/miranda/openwrt/tmp/cca1aXTG.ltrans7.ltrans.o
                0x0043a3c1                bb_dump_size.isra.0
 .text.text_yank.isra.0
                0x0043a4a8       0x44 /mnt/md0/miranda/openwrt/tmp/cca1aXTG.ltrans7.ltrans.o
                0x0043a4a9                text_yank.isra.0
 .text.awk_exit.isra.0
                0x0043a4ec       0x68 /mnt/md0/miranda/openwrt/tmp/cca1aXTG.ltrans7.ltrans.o
                0x0043a4ed                awk_exit.isra.0
 .text.setvar_u.isra.0
                0x0043a554       0x18 /mnt/md0/miranda/openwrt/tmp/cca1aXTG.ltrans7.ltrans.o
                0x0043a555                setvar_u.isra.0
 .text.clrvar.isra.0
                0x0043a56c       0x2c /mnt/md0/miranda/openwrt/tmp/cca1aXTG.ltrans7.ltrans.o
                0x0043a56d                clrvar.isra.0
 .text.dup2_or_raise.isra.0
                0x0043a598       0x24 /mnt/md0/miranda/openwrt/tmp/cca1aXTG.ltrans7.ltrans.o
                0x0043a599                dup2_or_raise.isra.0
 .text.pushredir.isra.0
                0x0043a5bc       0x4c /mnt/md0/miranda/openwrt/tmp/cca1aXTG.ltrans7.ltrans.o
                0x0043a5bd                pushredir.isra.0
 .text.scale.isra.0
                0x0043a608       0x14 /mnt/md0/miranda/openwrt/tmp/cca1aXTG.ltrans7.ltrans.o
                0x0043a609                scale.isra.0
 .text.xmalloc_optname_optval.isra.0
                0x0043a61c      0x2d8 /mnt/md0/miranda/openwrt/tmp/cca1aXTG.ltrans7.ltrans.o
                0x0043a61d                xmalloc_optname_optval.isra.0
 .text.send_select.isra.0
                0x0043a8f4       0x80 /mnt/md0/miranda/openwrt/tmp/cca1aXTG.ltrans7.ltrans.o
                0x0043a8f5                send_select.isra.0
 .text.send_discover.isra.0
                0x0043a974       0x64 /mnt/md0/miranda/openwrt/tmp/cca1aXTG.ltrans7.ltrans.o
                0x0043a975                send_discover.isra.0
 .text.get_addr.isra.0
                0x0043a9d8       0x3c /mnt/md0/miranda/openwrt/tmp/cca1aXTG.ltrans7.ltrans.o
                0x0043a9d9                get_addr.isra.0
 .text.ll_init_map.isra.0
                0x0043aa14       0x20 /mnt/md0/miranda/openwrt/tmp/cca1aXTG.ltrans7.ltrans.o
                0x0043aa15                ll_init_map.isra.0
 .text.addattr_l.isra.0
                0x0043aa34       0x54 /mnt/md0/miranda/openwrt/tmp/cca1aXTG.ltrans7.ltrans.o
                0x0043aa35                addattr_l.isra.0
 .text.addattr32.isra.0
                0x0043aa88       0x50 /mnt/md0/miranda/openwrt/tmp/cca1aXTG.ltrans7.ltrans.o
                0x0043aa89                addattr32.isra.0
 .text.handle_errors.isra.0
                0x0043aad8       0x38 /mnt/md0/miranda/openwrt/tmp/cca1aXTG.ltrans7.ltrans.o
                0x0043aad9                handle_errors.isra.0
 .text.bb_strtoll.constprop.0
                0x0043ab10       0x4c /mnt/md0/miranda/openwrt/tmp/cca1aXTG.ltrans7.ltrans.o
                0x0043ab11                bb_strtoll.constprop.0
 .text.BB_EXECVP.isra.0
                0x0043ab5c       0x28 /mnt/md0/miranda/openwrt/tmp/cca1aXTG.ltrans7.ltrans.o
                0x0043ab5d                BB_EXECVP.isra.0
 .text.bb_xioctl.isra.0
                0x0043ab84       0x18 /mnt/md0/miranda/openwrt/tmp/cca1aXTG.ltrans7.ltrans.o
                0x0043ab85                bb_xioctl.isra.0
 .text.fputs_stdout.isra.0
                0x0043ab9c       0x14 /mnt/md0/miranda/openwrt/tmp/cca1aXTG.ltrans7.ltrans.o
                0x0043ab9d                fputs_stdout.isra.0
 .text.display.lto_priv.0
                0x0043abb0      0x5d8 /mnt/md0/miranda/openwrt/tmp/cca1aXTG.ltrans7.ltrans.o
                0x0043abb1                display.lto_priv.0
 .text.put_prompt_custom
                0x0043b188       0x34 /mnt/md0/miranda/openwrt/tmp/cca1aXTG.ltrans7.ltrans.o
 .text.parse_and_put_prompt.lto_priv.0
                0x0043b1bc      0x2fc /mnt/md0/miranda/openwrt/tmp/cca1aXTG.ltrans7.ltrans.o
                0x0043b1bd                parse_and_put_prompt.lto_priv.0
 .text.bb_putchar.isra.0
                0x0043b4b8        0xc /mnt/md0/miranda/openwrt/tmp/cca1aXTG.ltrans7.ltrans.o
                0x0043b4b9                bb_putchar.isra.0
 .text.put_cur_glyph_and_inc_cursor.lto_priv.0
                0x0043b4c4       0x4c /mnt/md0/miranda/openwrt/tmp/cca1aXTG.ltrans7.ltrans.o
                0x0043b4c5                put_cur_glyph_and_inc_cursor.lto_priv.0
 .text.put_till_end_and_adv_cursor.lto_priv.0
                0x0043b510       0x20 /mnt/md0/miranda/openwrt/tmp/cca1aXTG.ltrans7.ltrans.o
                0x0043b511                put_till_end_and_adv_cursor.lto_priv.0
 .text.input_forward.lto_priv.0
                0x0043b530       0x20 /mnt/md0/miranda/openwrt/tmp/cca1aXTG.ltrans7.ltrans.o
                0x0043b531                input_forward.lto_priv.0
 .text.ctrl_right.lto_priv.0
                0x0043b550       0x54 /mnt/md0/miranda/openwrt/tmp/cca1aXTG.ltrans7.ltrans.o
                0x0043b551                ctrl_right.lto_priv.0
 .text.goto_new_line.lto_priv.0
                0x0043b5a4       0x24 /mnt/md0/miranda/openwrt/tmp/cca1aXTG.ltrans7.ltrans.o
                0x0043b5a5                goto_new_line.lto_priv.0
 .text.input_backward.lto_priv.0
                0x0043b5c8       0x88 /mnt/md0/miranda/openwrt/tmp/cca1aXTG.ltrans7.ltrans.o
                0x0043b5c9                input_backward.lto_priv.0
 .text.input_delete.lto_priv.0
                0x0043b650       0x44 /mnt/md0/miranda/openwrt/tmp/cca1aXTG.ltrans7.ltrans.o
                0x0043b651                input_delete.lto_priv.0
 .text.input_backspace.lto_priv.0
                0x0043b694       0x20 /mnt/md0/miranda/openwrt/tmp/cca1aXTG.ltrans7.ltrans.o
                0x0043b695                input_backspace.lto_priv.0
 .text.ctrl_left.lto_priv.0
                0x0043b6b4       0x54 /mnt/md0/miranda/openwrt/tmp/cca1aXTG.ltrans7.ltrans.o
                0x0043b6b5                ctrl_left.lto_priv.0
 .text.draw_custom.lto_priv.0
                0x0043b708       0x40 /mnt/md0/miranda/openwrt/tmp/cca1aXTG.ltrans7.ltrans.o
                0x0043b709                draw_custom.lto_priv.0
 .text.get_previous_history.lto_priv.0
                0x0043b748       0x38 /mnt/md0/miranda/openwrt/tmp/cca1aXTG.ltrans7.ltrans.o
                0x0043b749                get_previous_history.lto_priv.0
 .text.input_tab.lto_priv.0
                0x0043b780      0x2e0 /mnt/md0/miranda/openwrt/tmp/cca1aXTG.ltrans7.ltrans.o
                0x0043b781                input_tab.lto_priv.0
 .text.get_next_history.lto_priv.0
                0x0043ba60       0x38 /mnt/md0/miranda/openwrt/tmp/cca1aXTG.ltrans7.ltrans.o
                0x0043ba61                get_next_history.lto_priv.0
 .text.bb_ask_noecho.constprop.0
                0x0043ba98      0x108 /mnt/md0/miranda/openwrt/tmp/cca1aXTG.ltrans7.ltrans.o
                0x0043ba99                bb_ask_noecho.constprop.0
 .text.tcsetattr_stdin_TCSANOW.isra.0
                0x0043bba0       0x10 /mnt/md0/miranda/openwrt/tmp/cca1aXTG.ltrans7.ltrans.o
                0x0043bba1                tcsetattr_stdin_TCSANOW.isra.0
 .text.full_write2_str.isra.0
                0x0043bbb0       0x18 /mnt/md0/miranda/openwrt/tmp/cca1aXTG.ltrans7.ltrans.o
                0x0043bbb1                full_write2_str.isra.0
 .text.strncpy_IFNAMSIZ.isra.0
                0x0043bbc8        0xc /mnt/md0/miranda/openwrt/tmp/cca1aXTG.ltrans7.ltrans.o
                0x0043bbc9                strncpy_IFNAMSIZ.isra.0
 .text.setsockopt_bindtodevice
                0x0043bbd4       0x34 /mnt/md0/miranda/openwrt/tmp/cca1aXTG.ltrans7.ltrans.o
                0x0043bbd5                setsockopt_bindtodevice
 .text.common_ping_main.isra.0
                0x0043bc08      0x60c /mnt/md0/miranda/openwrt/tmp/cca1aXTG.ltrans7.ltrans.o
                0x0043bc09                common_ping_main.isra.0
 .text.udhcp_read_interface.constprop.0
                0x0043c214       0xb8 /mnt/md0/miranda/openwrt/tmp/cca1aXTG.ltrans7.ltrans.o
                0x0043c215                udhcp_read_interface.constprop.0
 .text.ndelay_off.isra.0
                0x0043c2cc       0x24 /mnt/md0/miranda/openwrt/tmp/cca1aXTG.ltrans7.ltrans.o
                0x0043c2cd                ndelay_off.isra.0
 *(SORT_BY_ALIGNMENT(.gnu.warning))
 *(SORT_BY_ALIGNMENT(.mips16.fn.*))
 *(SORT_BY_ALIGNMENT(.mips16.call.*))

.MIPS.stubs     0x0043c2f0        0x0
 .MIPS.stubs    0x0043c2f0        0x0 /mnt/md0/miranda/openwrt/staging_dir/toolchain-mips_24kc_gcc-12.3.0_musl/lib/gcc/mips-openwrt-linux-musl/12.3.0/../../../../mips-openwrt-linux-musl/lib/crt1.o

.fini           0x0043c2f0       0x1c
 *(SORT_NONE(.fini))
 .fini          0x0043c2f0        0xc /mnt/md0/miranda/openwrt/staging_dir/toolchain-mips_24kc_gcc-12.3.0_musl/lib/gcc/mips-openwrt-linux-musl/12.3.0/../../../../mips-openwrt-linux-musl/lib/crti.o
                0x0043c2f0                _fini
 .fini          0x0043c2fc       0x10 /mnt/md0/miranda/openwrt/staging_dir/toolchain-mips_24kc_gcc-12.3.0_musl/lib/gcc/mips-openwrt-linux-musl/12.3.0/../../../../mips-openwrt-linux-musl/lib/crtn.o
                [!provide]                        PROVIDE (__etext = .)
                [!provide]                        PROVIDE (_etext = .)
                [!provide]                        PROVIDE (etext = .)

.rodata         0x0043c310    0x12061
 *(SORT_BY_ALIGNMENT(.rodata) SORT_BY_ALIGNMENT(.rodata.*) SORT_BY_ALIGNMENT(.gnu.linkonce.r.*))
 .rodata        0x0043c310       0xf0 /mnt/md0/miranda/openwrt/tmp/cca1aXTG.ltrans0.ltrans.o
 .rodata        0x0043c400       0x50 /mnt/md0/miranda/openwrt/tmp/cca1aXTG.ltrans1.ltrans.o
 .rodata        0x0043c450       0x40 /mnt/md0/miranda/openwrt/tmp/cca1aXTG.ltrans2.ltrans.o
 .rodata        0x0043c490       0x60 /mnt/md0/miranda/openwrt/tmp/cca1aXTG.ltrans3.ltrans.o
 .rodata        0x0043c4f0      0x150 /mnt/md0/miranda/openwrt/tmp/cca1aXTG.ltrans4.ltrans.o
 .rodata        0x0043c640      0x280 /mnt/md0/miranda/openwrt/tmp/cca1aXTG.ltrans5.ltrans.o
 .rodata        0x0043c8c0       0xc0 /mnt/md0/miranda/openwrt/tmp/cca1aXTG.ltrans6.ltrans.o
 .rodata        0x0043c980       0x70 /mnt/md0/miranda/openwrt/tmp/cca1aXTG.ltrans7.ltrans.o
 .rodata.sha_K  0x0043c9f0      0x100 /mnt/md0/miranda/openwrt/tmp/cca1aXTG.ltrans7.ltrans.o
 .rodata.prg_cache_get.str1.4
                0x0043caf0        0x0 /mnt/md0/miranda/openwrt/tmp/cca1aXTG.ltrans0.ltrans.o
                                  0x4 (size before relaxing)
 .rodata.clear_line.str1.4
                0x0043caf0        0xb /mnt/md0/miranda/openwrt/tmp/cca1aXTG.ltrans0.ltrans.o
                                  0xc (size before relaxing)
 *fill*         0x0043cafb        0x1 
 .rodata.print_statusline.str1.4
                0x0043cafc        0xc /mnt/md0/miranda/openwrt/tmp/cca1aXTG.ltrans0.ltrans.o
 .rodata.show_bridge_timer.str1.4
                0x0043cb08        0xb /mnt/md0/miranda/openwrt/tmp/cca1aXTG.ltrans0.ltrans.o
                                  0xc (size before relaxing)
 *fill*         0x0043cb13        0x1 
 .rodata.print_bytes_scaled.str1.4
                0x0043cb14       0x1d /mnt/md0/miranda/openwrt/tmp/cca1aXTG.ltrans0.ltrans.o
                                 0x20 (size before relaxing)
 *fill*         0x0043cb31        0x3 
 .rodata.status_print.str1.4
                0x0043cb34       0x2e /mnt/md0/miranda/openwrt/tmp/cca1aXTG.ltrans0.ltrans.o
                                 0x30 (size before relaxing)
 *fill*         0x0043cb62        0x2 
 .rodata.lock_main.str1.4
                0x0043cb64       0xe0 /mnt/md0/miranda/openwrt/tmp/cca1aXTG.ltrans0.ltrans.o
                                 0xe8 (size before relaxing)
 .rodata.INET_sprint.str1.4
                0x0043cc44        0xb /mnt/md0/miranda/openwrt/tmp/cca1aXTG.ltrans0.ltrans.o
                                  0xc (size before relaxing)
 *fill*         0x0043cc4f        0x1 
 .rodata.netmsg_main.str1.4
                0x0043cc50       0x45 /mnt/md0/miranda/openwrt/tmp/cca1aXTG.ltrans0.ltrans.o
                                 0x48 (size before relaxing)
 *fill*         0x0043cc95        0x3 
 .rodata.build_ipv6_addr.str1.4
                0x0043cc98       0x11 /mnt/md0/miranda/openwrt/tmp/cca1aXTG.ltrans0.ltrans.o
                                 0x14 (size before relaxing)
 *fill*         0x0043cca9        0x3 
 .rodata.scan_inet_proc_line.str1.4
                0x0043ccac       0x4f /mnt/md0/miranda/openwrt/tmp/cca1aXTG.ltrans0.ltrans.o
                                 0x50 (size before relaxing)
 *fill*         0x0043ccfb        0x1 
 .rodata.parse_reply.str1.4
                0x0043ccfc      0x144 /mnt/md0/miranda/openwrt/tmp/cca1aXTG.ltrans0.ltrans.o
                                0x14c (size before relaxing)
 .rodata.unix_do_one.str1.4
                0x0043ce40       0xae /mnt/md0/miranda/openwrt/tmp/cca1aXTG.ltrans0.ltrans.o
                                 0xb8 (size before relaxing)
 *fill*         0x0043ceee        0x2 
 .rodata.bb_show_usage.str1.4
                0x0043cef0       0x35 /mnt/md0/miranda/openwrt/tmp/cca1aXTG.ltrans0.ltrans.o
                                 0x40 (size before relaxing)
 *fill*         0x0043cf25        0x3 
 .rodata.show_usage_if_dash_dash_help.str1.4
                0x0043cf28        0x7 /mnt/md0/miranda/openwrt/tmp/cca1aXTG.ltrans0.ltrans.o
                                  0x8 (size before relaxing)
 *fill*         0x0043cf2f        0x1 
 .rodata.ip_main.str1.4
                0x0043cf30        0x7 /mnt/md0/miranda/openwrt/tmp/cca1aXTG.ltrans0.ltrans.o
                                  0x8 (size before relaxing)
 *fill*         0x0043cf37        0x1 
 .rodata.main.str1.4
                0x0043cf38       0x1c /mnt/md0/miranda/openwrt/tmp/cca1aXTG.ltrans0.ltrans.o
 .rodata.get_terminal_width_height.str1.4
                0x0043cf54       0x10 /mnt/md0/miranda/openwrt/tmp/cca1aXTG.ltrans0.ltrans.o
 .rodata.is_TERM_dumb.str1.4
                0x0043cf64        0xd /mnt/md0/miranda/openwrt/tmp/cca1aXTG.ltrans0.ltrans.o
                                 0x10 (size before relaxing)
 *fill*         0x0043cf71        0x3 
 .rodata.alarm_handler.str1.4
                0x0043cf74       0x25 /mnt/md0/miranda/openwrt/tmp/cca1aXTG.ltrans0.ltrans.o
                                 0x28 (size before relaxing)
 *fill*         0x0043cf99        0x3 
 .rodata.buffer_print.str1.4
                0x0043cf9c       0x29 /mnt/md0/miranda/openwrt/tmp/cca1aXTG.ltrans0.ltrans.o
                                 0x2c (size before relaxing)
 *fill*         0x0043cfc5        0x3 
 .rodata.show_bridge.str1.4
                0x0043cfc8       0x76 /mnt/md0/miranda/openwrt/tmp/cca1aXTG.ltrans0.ltrans.o
                                 0x78 (size before relaxing)
 .rodata.bb_verror_msg.str1.4
                0x0043d03e       0x76 /mnt/md0/miranda/openwrt/tmp/cca1aXTG.ltrans0.ltrans.o
                                  0x4 (size before relaxing)
 *fill*         0x0043d03e        0x2 
 .rodata.open3_or_warn.str1.4
                0x0043d040       0x10 /mnt/md0/miranda/openwrt/tmp/cca1aXTG.ltrans0.ltrans.o
 .rodata.chdir_or_warn.str1.4
                0x0043d050       0x1f /mnt/md0/miranda/openwrt/tmp/cca1aXTG.ltrans0.ltrans.o
                                 0x20 (size before relaxing)
 *fill*         0x0043d06f        0x1 
 .rodata.bb_full_fd_action.lto_priv.0.str1.4
                0x0043d070       0x18 /mnt/md0/miranda/openwrt/tmp/cca1aXTG.ltrans0.ltrans.o
 .rodata.xrename.str1.4
                0x0043d088       0x18 /mnt/md0/miranda/openwrt/tmp/cca1aXTG.ltrans0.ltrans.o
 .rodata.xlseek.str1.4
                0x0043d0a0       0x10 /mnt/md0/miranda/openwrt/tmp/cca1aXTG.ltrans0.ltrans.o
 .rodata.xchroot.str1.4
                0x0043d0b0       0x24 /mnt/md0/miranda/openwrt/tmp/cca1aXTG.ltrans0.ltrans.o
                                 0x28 (size before relaxing)
 .rodata.xsocket.str1.4
                0x0043d0d4       0x34 /mnt/md0/miranda/openwrt/tmp/cca1aXTG.ltrans0.ltrans.o
 .rodata.xstat.str1.4
                0x0043d108       0x10 /mnt/md0/miranda/openwrt/tmp/cca1aXTG.ltrans0.ltrans.o
 .rodata.BB_EXECVP_or_die.str1.4
                0x0043d118       0x13 /mnt/md0/miranda/openwrt/tmp/cca1aXTG.ltrans0.ltrans.o
                                 0x14 (size before relaxing)
 *fill*         0x0043d12b        0x1 
 .rodata.xpipe.str1.4
                0x0043d12c       0x12 /mnt/md0/miranda/openwrt/tmp/cca1aXTG.ltrans0.ltrans.o
                                 0x14 (size before relaxing)
 *fill*         0x0043d13e        0x2 
 .rodata.xdup2.str1.4
                0x0043d140       0x20 /mnt/md0/miranda/openwrt/tmp/cca1aXTG.ltrans0.ltrans.o
 .rodata.bb_daemonize_or_rexec.str1.4
                0x0043d160       0x12 /mnt/md0/miranda/openwrt/tmp/cca1aXTG.ltrans0.ltrans.o
                                 0x14 (size before relaxing)
 *fill*         0x0043d172        0x2 
 .rodata.xwrite.str1.4
                0x0043d174        0xc /mnt/md0/miranda/openwrt/tmp/cca1aXTG.ltrans0.ltrans.o
 .rodata.xclose.str1.4
                0x0043d180        0xd /mnt/md0/miranda/openwrt/tmp/cca1aXTG.ltrans0.ltrans.o
                                 0x10 (size before relaxing)
 *fill*         0x0043d18d        0x3 
 .rodata.xsetgid.str1.4
                0x0043d190        0x7 /mnt/md0/miranda/openwrt/tmp/cca1aXTG.ltrans0.ltrans.o
                                  0x8 (size before relaxing)
 *fill*         0x0043d197        0x1 
 .rodata.xsetuid.str1.4
                0x0043d198        0x7 /mnt/md0/miranda/openwrt/tmp/cca1aXTG.ltrans0.ltrans.o
                                  0x8 (size before relaxing)
 *fill*         0x0043d19f        0x1 
 .rodata.xbind.str1.4
                0x0043d1a0        0x5 /mnt/md0/miranda/openwrt/tmp/cca1aXTG.ltrans0.ltrans.o
                                  0x8 (size before relaxing)
 *fill*         0x0043d1a5        0x3 
 .rodata.xsendto.str1.4
                0x0043d1a8        0x7 /mnt/md0/miranda/openwrt/tmp/cca1aXTG.ltrans0.ltrans.o
                                  0x8 (size before relaxing)
 *fill*         0x0043d1af        0x1 
 .rodata.xsettimeofday.str1.4
                0x0043d1b0        0xd /mnt/md0/miranda/openwrt/tmp/cca1aXTG.ltrans0.ltrans.o
                                 0x10 (size before relaxing)
 *fill*         0x0043d1bd        0x3 
 .rodata.write_uint.str1.4
                0x0043d1c0        0x9 /mnt/md0/miranda/openwrt/tmp/cca1aXTG.ltrans0.ltrans.o
                                 0x10 (size before relaxing)
 *fill*         0x0043d1c9        0x3 
 .rodata.edit_file.str1.4
                0x0043d1cc       0x13 /mnt/md0/miranda/openwrt/tmp/cca1aXTG.ltrans0.ltrans.o
                                 0x14 (size before relaxing)
 *fill*         0x0043d1df        0x1 
 .rodata.die_if_ferror.str1.4
                0x0043d1e0        0xe /mnt/md0/miranda/openwrt/tmp/cca1aXTG.ltrans0.ltrans.o
                                 0x10 (size before relaxing)
 *fill*         0x0043d1ee        0x2 
 .rodata.parse_datestr.str1.4
                0x0043d1f0       0x82 /mnt/md0/miranda/openwrt/tmp/cca1aXTG.ltrans0.ltrans.o
                                 0x8c (size before relaxing)
 *fill*         0x0043d272        0x2 
 .rodata.ParseField.str1.4
                0x0043d274       0x1b /mnt/md0/miranda/openwrt/tmp/cca1aXTG.ltrans0.ltrans.o
                                 0x1c (size before relaxing)
 *fill*         0x0043d28f        0x1 
 .rodata.do_if_fetch.str1.4
                0x0043d290       0x41 /mnt/md0/miranda/openwrt/tmp/cca1aXTG.ltrans0.ltrans.o
                                 0x44 (size before relaxing)
 *fill*         0x0043d2d1        0x3 
 .rodata.UNSPEC_print.str1.4
                0x0043d2d4        0x6 /mnt/md0/miranda/openwrt/tmp/cca1aXTG.ltrans0.ltrans.o
                                  0x8 (size before relaxing)
 *fill*         0x0043d2da        0x2 
 .rodata.less_gets.str1.4
                0x0043d2dc        0x4 /mnt/md0/miranda/openwrt/tmp/cca1aXTG.ltrans0.ltrans.o
 .rodata.do_info.str1.4
                0x0043d2e0       0x1a /mnt/md0/miranda/openwrt/tmp/cca1aXTG.ltrans0.ltrans.o
                                 0x1c (size before relaxing)
 *fill*         0x0043d2fa        0x2 
 .rodata.load_crontab.str1.4
                0x0043d2fc       0x72 /mnt/md0/miranda/openwrt/tmp/cca1aXTG.ltrans0.ltrans.o
                                 0x74 (size before relaxing)
 *fill*         0x0043d36e        0x2 
 .rodata.rescan_crontab_dir.str1.4
                0x0043d370        0xc /mnt/md0/miranda/openwrt/tmp/cca1aXTG.ltrans0.ltrans.o
 .rodata.examine_file.str1.4
                0x0043d37c       0x22 /mnt/md0/miranda/openwrt/tmp/cca1aXTG.ltrans0.ltrans.o
                                 0x24 (size before relaxing)
 *fill*         0x0043d39e        0x2 
 .rodata.change_file.str1.4
                0x0043d3a0       0x21 /mnt/md0/miranda/openwrt/tmp/cca1aXTG.ltrans0.ltrans.o
                                 0x24 (size before relaxing)
 *fill*         0x0043d3c1        0x3 
 .rodata.INET6_sprint.str1.4
                0x0043d3c4        0xa /mnt/md0/miranda/openwrt/tmp/cca1aXTG.ltrans0.ltrans.o
                                  0xc (size before relaxing)
 *fill*         0x0043d3ce        0x2 
 .rodata.ife_print.str1.4
                0x0043d3d0      0x289 /mnt/md0/miranda/openwrt/tmp/cca1aXTG.ltrans0.ltrans.o
                                0x290 (size before relaxing)
 *fill*         0x0043d659        0x3 
 .rodata.parse_resolvconf.str1.4
                0x0043d65c       0x2b /mnt/md0/miranda/openwrt/tmp/cca1aXTG.ltrans0.ltrans.o
                                 0x34 (size before relaxing)
 *fill*         0x0043d687        0x1 
 .rodata.safe_setenv.str1.4
                0x0043d688        0x6 /mnt/md0/miranda/openwrt/tmp/cca1aXTG.ltrans0.ltrans.o
                                  0x8 (size before relaxing)
 *fill*         0x0043d68e        0x2 
 .rodata.start_one_job.str1.4
                0x0043d690       0x7f /mnt/md0/miranda/openwrt/tmp/cca1aXTG.ltrans0.ltrans.o
                                 0x80 (size before relaxing)
 *fill*         0x0043d70f        0x1 
 .rodata.ether_print.str1.4
                0x0043d710       0x1e /mnt/md0/miranda/openwrt/tmp/cca1aXTG.ltrans0.ltrans.o
                                 0x20 (size before relaxing)
 *fill*         0x0043d72e        0x2 
 .rodata.ip_port_str.str1.4
                0x0043d730        0x6 /mnt/md0/miranda/openwrt/tmp/cca1aXTG.ltrans0.ltrans.o
                                  0x8 (size before relaxing)
 *fill*         0x0043d736        0x2 
 .rodata.print_inet_line.str1.4
                0x0043d738       0x26 /mnt/md0/miranda/openwrt/tmp/cca1aXTG.ltrans0.ltrans.o
                                 0x28 (size before relaxing)
 *fill*         0x0043d75e        0x2 
 .rodata.tcp_do_one.str1.4
                0x0043d760        0x4 /mnt/md0/miranda/openwrt/tmp/cca1aXTG.ltrans0.ltrans.o
 .rodata.udp_do_one.str1.4
                0x0043d764       0x10 /mnt/md0/miranda/openwrt/tmp/cca1aXTG.ltrans0.ltrans.o
 .rodata.raw_do_one.str1.4
                0x0043d774        0x4 /mnt/md0/miranda/openwrt/tmp/cca1aXTG.ltrans0.ltrans.o
 .rodata.add_query_with_search.str1.4
                0x0043d778        0x8 /mnt/md0/miranda/openwrt/tmp/cca1aXTG.ltrans0.ltrans.o
 .rodata.bb_copyfd_exact_size.str1.4
                0x0043d780        0xb /mnt/md0/miranda/openwrt/tmp/cca1aXTG.ltrans0.ltrans.o
                                  0xc (size before relaxing)
 *fill*         0x0043d78b        0x1 
 .rodata.get_mono.str1.4
                0x0043d78c       0x20 /mnt/md0/miranda/openwrt/tmp/cca1aXTG.ltrans0.ltrans.o
 .rodata.run_command.str1.4
                0x0043d7ac        0x5 /mnt/md0/miranda/openwrt/tmp/cca1aXTG.ltrans0.ltrans.o
                                  0x8 (size before relaxing)
 *fill*         0x0043d7b1        0x3 
 .rodata.send_queries.str1.4
                0x0043d7b4       0x98 /mnt/md0/miranda/openwrt/tmp/cca1aXTG.ltrans0.ltrans.o
 .rodata.xstrtoul_range_sfx.str1.4
                0x0043d84c       0x3c /mnt/md0/miranda/openwrt/tmp/cca1aXTG.ltrans0.ltrans.o
 .rodata.show_bridge_port.str1.4
                0x0043d888      0x1e8 /mnt/md0/miranda/openwrt/tmp/cca1aXTG.ltrans0.ltrans.o
                                0x1f8 (size before relaxing)
 .rodata.nslookup_main.str1.4
                0x0043da70       0xa2 /mnt/md0/miranda/openwrt/tmp/cca1aXTG.ltrans0.ltrans.o
                                 0xa4 (size before relaxing)
 *fill*         0x0043db12        0x2 
 .rodata.vgetopt32.str1.4
                0x0043db14        0xb /mnt/md0/miranda/openwrt/tmp/cca1aXTG.ltrans0.ltrans.o
                                  0xc (size before relaxing)
 *fill*         0x0043db1f        0x1 
 .rodata.passwd_main.str1.4
                0x0043db20      0x26c /mnt/md0/miranda/openwrt/tmp/cca1aXTG.ltrans0.ltrans.o
                                0x270 (size before relaxing)
 .rodata.crond_main.str1.4
                0x0043dd8c       0xf3 /mnt/md0/miranda/openwrt/tmp/cca1aXTG.ltrans0.ltrans.o
                                 0xf4 (size before relaxing)
 *fill*         0x0043de7f        0x1 
 .rodata.crontab_main.str1.4
                0x0043de80       0x4a /mnt/md0/miranda/openwrt/tmp/cca1aXTG.ltrans0.ltrans.o
                                 0x4c (size before relaxing)
 *fill*         0x0043deca        0x2 
 .rodata.strings_main.str1.4
                0x0043decc       0x25 /mnt/md0/miranda/openwrt/tmp/cca1aXTG.ltrans0.ltrans.o
                                 0x2c (size before relaxing)
 *fill*         0x0043def1        0x3 
 .rodata.time_main.str1.4
                0x0043def4       0x88 /mnt/md0/miranda/openwrt/tmp/cca1aXTG.ltrans0.ltrans.o
                                 0x98 (size before relaxing)
 .rodata.netstat_main.str1.4
                0x0043df7c      0x1f7 /mnt/md0/miranda/openwrt/tmp/cca1aXTG.ltrans0.ltrans.o
                                0x1f8 (size before relaxing)
 *fill*         0x0043e173        0x1 
 .rodata.login_main.str1.4
                0x0043e174       0xd0 /mnt/md0/miranda/openwrt/tmp/cca1aXTG.ltrans0.ltrans.o
 .rodata.brctl_main.str1.4
                0x0043e244      0x309 /mnt/md0/miranda/openwrt/tmp/cca1aXTG.ltrans0.ltrans.o
                                0x30c (size before relaxing)
 *fill*         0x0043e54d        0x3 
 .rodata.less_main.str1.4
                0x0043e550       0x50 /mnt/md0/miranda/openwrt/tmp/cca1aXTG.ltrans0.ltrans.o
                                 0x54 (size before relaxing)
 .rodata.nc_main.str1.4
                0x0043e5a0       0x15 /mnt/md0/miranda/openwrt/tmp/cca1aXTG.ltrans0.ltrans.o
                                 0x18 (size before relaxing)
 *fill*         0x0043e5b5        0x3 
 .rodata.add_to_prg_cache_if_socket.str1.4
                0x0043e5b8       0x14 /mnt/md0/miranda/openwrt/tmp/cca1aXTG.ltrans0.ltrans.o
 .rodata.concat_path_file.str1.4
                0x0043e5cc        0x7 /mnt/md0/miranda/openwrt/tmp/cca1aXTG.ltrans0.ltrans.o
                                  0x8 (size before relaxing)
 *fill*         0x0043e5d3        0x1 
 .rodata.dir_act.str1.4
                0x0043e5d4        0xf /mnt/md0/miranda/openwrt/tmp/cca1aXTG.ltrans0.ltrans.o
                                 0x10 (size before relaxing)
 *fill*         0x0043e5e3        0x1 
 .rodata.ifconfig_main.str1.4
                0x0043e5e4       0x69 /mnt/md0/miranda/openwrt/tmp/cca1aXTG.ltrans0.ltrans.o
                                 0x6c (size before relaxing)
 *fill*         0x0043e64d        0x3 
 .rodata.step_time.str1.4
                0x0043e650       0x52 /mnt/md0/miranda/openwrt/tmp/cca1aXTG.ltrans0.ltrans.o
                                 0x54 (size before relaxing)
 *fill*         0x0043e6a2        0x2 
 .rodata.resolve_peer_hostname.lto_priv.0.str1.4
                0x0043e6a4        0xb /mnt/md0/miranda/openwrt/tmp/cca1aXTG.ltrans0.ltrans.o
                                  0xc (size before relaxing)
 *fill*         0x0043e6af        0x1 
 .rodata.run_script.lto_priv.0.str1.4
                0x0043e6b0       0x5a /mnt/md0/miranda/openwrt/tmp/cca1aXTG.ltrans0.ltrans.o
                                 0x5c (size before relaxing)
 *fill*         0x0043e70a        0x2 
 .rodata.select_and_cluster.lto_priv.0.str1.4
                0x0043e70c       0xa3 /mnt/md0/miranda/openwrt/tmp/cca1aXTG.ltrans0.ltrans.o
                                 0xa4 (size before relaxing)
 *fill*         0x0043e7af        0x1 
 .rodata.update_local_clock.lto_priv.0.str1.4
                0x0043e7b0       0x94 /mnt/md0/miranda/openwrt/tmp/cca1aXTG.ltrans0.ltrans.o
 .rodata.str1.4
                0x0043e844      0x295 /mnt/md0/miranda/openwrt/tmp/cca1aXTG.ltrans0.ltrans.o
                                0x2c4 (size before relaxing)
 *fill*         0x0043ead9        0x3 
 .rodata.unspec_aftype
                0x0043eadc       0x2c /mnt/md0/miranda/openwrt/tmp/cca1aXTG.ltrans0.ltrans.o
 .rodata.inet6_aftype
                0x0043eb08       0x2c /mnt/md0/miranda/openwrt/tmp/cca1aXTG.ltrans0.ltrans.o
 .rodata.inet_aftype
                0x0043eb34       0x2c /mnt/md0/miranda/openwrt/tmp/cca1aXTG.ltrans0.ltrans.o
 .rodata.sit_hwtype
                0x0043eb60       0x20 /mnt/md0/miranda/openwrt/tmp/cca1aXTG.ltrans0.ltrans.o
 .rodata.unspec_hwtype
                0x0043eb80       0x20 /mnt/md0/miranda/openwrt/tmp/cca1aXTG.ltrans0.ltrans.o
 .rodata.ppp_hwtype
                0x0043eba0       0x20 /mnt/md0/miranda/openwrt/tmp/cca1aXTG.ltrans0.ltrans.o
 .rodata.ether_hwtype
                0x0043ebc0       0x20 /mnt/md0/miranda/openwrt/tmp/cca1aXTG.ltrans0.ltrans.o
 .rodata.loop_hwtype
                0x0043ebe0       0x20 /mnt/md0/miranda/openwrt/tmp/cca1aXTG.ltrans0.ltrans.o
 .rodata.v4_mapped
                0x0043ec00        0xc /mnt/md0/miranda/openwrt/tmp/cca1aXTG.ltrans0.ltrans.o
 .rodata.rcodes
                0x0043ec0c       0x40 /mnt/md0/miranda/openwrt/tmp/cca1aXTG.ltrans0.ltrans.o
 .rodata.CSWTCH.83
                0x0043ec4c       0x14 /mnt/md0/miranda/openwrt/tmp/cca1aXTG.ltrans0.ltrans.o
 .rodata.tcp_state
                0x0043ec60       0x30 /mnt/md0/miranda/openwrt/tmp/cca1aXTG.ltrans0.ltrans.o
 .rodata.af_numbers.0
                0x0043ec90        0x4 /mnt/md0/miranda/openwrt/tmp/cca1aXTG.ltrans0.ltrans.o
 .rodata.ip_func_ptrs.0
                0x0043ec94       0x1c /mnt/md0/miranda/openwrt/tmp/cca1aXTG.ltrans0.ltrans.o
 .rodata.aftypes
                0x0043ecb0       0x10 /mnt/md0/miranda/openwrt/tmp/cca1aXTG.ltrans0.ltrans.o
 .rodata.hwtypes
                0x0043ecc0       0x18 /mnt/md0/miranda/openwrt/tmp/cca1aXTG.ltrans0.ltrans.o
 .rodata.if_port_text
                0x0043ecd8       0x20 /mnt/md0/miranda/openwrt/tmp/cca1aXTG.ltrans0.ltrans.o
 .rodata.Arg1Opt
                0x0043ecf8       0x58 /mnt/md0/miranda/openwrt/tmp/cca1aXTG.ltrans0.ltrans.o
 .rodata.OptArray
                0x0043ed50       0x98 /mnt/md0/miranda/openwrt/tmp/cca1aXTG.ltrans0.ltrans.o
 .rodata.bb_null_long_options
                0x0043ede8       0x10 /mnt/md0/miranda/openwrt/tmp/cca1aXTG.ltrans0.ltrans.o
 .rodata.applet_main
                0x0043edf8      0x1d8 /mnt/md0/miranda/openwrt/tmp/cca1aXTG.ltrans0.ltrans.o
 .rodata.recv_and_process_peer_pkt.str1.4
                0x0043efd0      0x11a /mnt/md0/miranda/openwrt/tmp/cca1aXTG.ltrans1.ltrans.o
                                0x11c (size before relaxing)
 *fill*         0x0043f0ea        0x2 
 .rodata.parse_rtattr.str1.4
                0x0043f0ec       0x18 /mnt/md0/miranda/openwrt/tmp/cca1aXTG.ltrans1.ltrans.o
 .rodata.recv_and_process_client_pkt.str1.4
                0x0043f104       0x2f /mnt/md0/miranda/openwrt/tmp/cca1aXTG.ltrans1.ltrans.o
                                 0x30 (size before relaxing)
 *fill*         0x0043f133        0x1 
 .rodata.ntp_init.str1.4
                0x0043f134       0x1f /mnt/md0/miranda/openwrt/tmp/cca1aXTG.ltrans1.ltrans.o
                                 0x30 (size before relaxing)
 *fill*         0x0043f153        0x1 
 .rodata.ntpd_main.str1.4
                0x0043f154       0x87 /mnt/md0/miranda/openwrt/tmp/cca1aXTG.ltrans1.ltrans.o
                                 0x88 (size before relaxing)
 *fill*         0x0043f1db        0x1 
 .rodata.print_stats_and_exit.lto_priv.0.str1.4
                0x0043f1dc       0xa9 /mnt/md0/miranda/openwrt/tmp/cca1aXTG.ltrans1.ltrans.o
                                 0xac (size before relaxing)
 *fill*         0x0043f285        0x3 
 .rodata.next_arg.str1.4
                0x0043f288       0x29 /mnt/md0/miranda/openwrt/tmp/cca1aXTG.ltrans1.ltrans.o
                                 0x2c (size before relaxing)
 *fill*         0x0043f2b1        0x3 
 .rodata.duparg.str1.4
                0x0043f2b4       0x29 /mnt/md0/miranda/openwrt/tmp/cca1aXTG.ltrans1.ltrans.o
                                 0x2c (size before relaxing)
 *fill*         0x0043f2dd        0x3 
 .rodata.INET_setroute.str1.4
                0x0043f2e0       0x9e /mnt/md0/miranda/openwrt/tmp/cca1aXTG.ltrans1.ltrans.o
                                 0xac (size before relaxing)
 .rodata.INET6_setroute.str1.4
                0x0043f37e       0x10 /mnt/md0/miranda/openwrt/tmp/cca1aXTG.ltrans1.ltrans.o
 *fill*         0x0043f37e        0x2 
 .rodata.get_hz.str1.4
                0x0043f380       0x27 /mnt/md0/miranda/openwrt/tmp/cca1aXTG.ltrans1.ltrans.o
                                 0x28 (size before relaxing)
 *fill*         0x0043f3a7        0x1 
 .rodata.INET6_displayroutes.str1.4
                0x0043f3a8       0xbd /mnt/md0/miranda/openwrt/tmp/cca1aXTG.ltrans1.ltrans.o
                                 0xcc (size before relaxing)
 *fill*         0x0043f465        0x3 
 .rodata.hexdump_if_verbose.str1.4
                0x0043f468       0x52 /mnt/md0/miranda/openwrt/tmp/cca1aXTG.ltrans1.ltrans.o
                                 0x54 (size before relaxing)
 *fill*         0x0043f4ba        0x2 
 .rodata.traceroute_init.str1.4
                0x0043f4bc       0xbc /mnt/md0/miranda/openwrt/tmp/cca1aXTG.ltrans1.ltrans.o
 .rodata.common_traceroute_main.str1.4
                0x0043f578       0xdf /mnt/md0/miranda/openwrt/tmp/cca1aXTG.ltrans1.ltrans.o
                                 0xe0 (size before relaxing)
 *fill*         0x0043f657        0x1 
 .rodata.rtnl_rtntype_n2a.str1.4
                0x0043f658        0x5 /mnt/md0/miranda/openwrt/tmp/cca1aXTG.ltrans1.ltrans.o
                                  0x8 (size before relaxing)
 *fill*         0x0043f65d        0x3 
 .rodata.rtnl_send_check.str1.4
                0x0043f660       0x10 /mnt/md0/miranda/openwrt/tmp/cca1aXTG.ltrans1.ltrans.o
 .rodata.flush_update.lto_priv.0.str1.4
                0x0043f670       0x19 /mnt/md0/miranda/openwrt/tmp/cca1aXTG.ltrans1.ltrans.o
                                 0x1c (size before relaxing)
 *fill*         0x0043f689        0x3 
 .rodata.rtnl_talk.str1.4
                0x0043f68c       0xcc /mnt/md0/miranda/openwrt/tmp/cca1aXTG.ltrans1.ltrans.o
 .rodata.ll_idx_n2a.str1.4
                0x0043f758        0x5 /mnt/md0/miranda/openwrt/tmp/cca1aXTG.ltrans1.ltrans.o
                                  0xc (size before relaxing)
 *fill*         0x0043f75d        0x3 
 .rodata.print_linkinfo.str1.4
                0x0043f760       0xba /mnt/md0/miranda/openwrt/tmp/cca1aXTG.ltrans1.ltrans.o
                                 0xcc (size before relaxing)
 *fill*         0x0043f81a        0x2 
 .rodata.xll_name_to_index.str1.4
                0x0043f81c       0x17 /mnt/md0/miranda/openwrt/tmp/cca1aXTG.ltrans1.ltrans.o
                                 0x18 (size before relaxing)
 *fill*         0x0043f833        0x1 
 .rodata.rtnl_tab_initialize.str1.4
                0x0043f834       0x38 /mnt/md0/miranda/openwrt/tmp/cca1aXTG.ltrans1.ltrans.o
                                 0x3c (size before relaxing)
 .rodata.rtnl_rtprot_initialize.str1.4
                0x0043f86c        0x7 /mnt/md0/miranda/openwrt/tmp/cca1aXTG.ltrans1.ltrans.o
                                  0x8 (size before relaxing)
 *fill*         0x0043f873        0x1 
 .rodata.rtnl_rtscope_initialize.str1.4
                0x0043f874       0x27 /mnt/md0/miranda/openwrt/tmp/cca1aXTG.ltrans1.ltrans.o
                                 0x30 (size before relaxing)
 *fill*         0x0043f89b        0x1 
 .rodata.rtnl_rtrealm_initialize.str1.4
                0x0043f89c        0x7 /mnt/md0/miranda/openwrt/tmp/cca1aXTG.ltrans1.ltrans.o
                                 0x10 (size before relaxing)
 *fill*         0x0043f8a3        0x1 
 .rodata.rtnl_rtdsfield_initialize.str1.4
                0x0043f8a4        0x8 /mnt/md0/miranda/openwrt/tmp/cca1aXTG.ltrans1.ltrans.o
                                  0xc (size before relaxing)
 .rodata.rtnl_rttable_initialize.str1.4
                0x0043f8ac       0x17 /mnt/md0/miranda/openwrt/tmp/cca1aXTG.ltrans1.ltrans.o
                                 0x20 (size before relaxing)
 *fill*         0x0043f8c3        0x1 
 .rodata.rt_addr_n2a.str1.4
                0x0043f8c4        0x4 /mnt/md0/miranda/openwrt/tmp/cca1aXTG.ltrans1.ltrans.o
 .rodata.print_addrinfo.str1.4
                0x0043f8c8      0x126 /mnt/md0/miranda/openwrt/tmp/cca1aXTG.ltrans1.ltrans.o
                                0x130 (size before relaxing)
 *fill*         0x0043f9ee        0x2 
 .rodata.print_neigh.str1.4
                0x0043f9f0       0xd8 /mnt/md0/miranda/openwrt/tmp/cca1aXTG.ltrans1.ltrans.o
                                 0xdc (size before relaxing)
 .rodata.print_route.str1.4
                0x0043fac8       0xe4 /mnt/md0/miranda/openwrt/tmp/cca1aXTG.ltrans1.ltrans.o
 .rodata.print_rule.str1.4
                0x0043fbac       0x9b /mnt/md0/miranda/openwrt/tmp/cca1aXTG.ltrans1.ltrans.o
                                 0xa8 (size before relaxing)
 *fill*         0x0043fc47        0x1 
 .rodata.unpack_tail.lto_priv.0.str1.4
                0x0043fc48       0x39 /mnt/md0/miranda/openwrt/tmp/cca1aXTG.ltrans1.ltrans.o
                                 0x3c (size before relaxing)
 *fill*         0x0043fc81        0x3 
 .rodata.bb_displayroutes.str1.4
                0x0043fc84       0xfa /mnt/md0/miranda/openwrt/tmp/cca1aXTG.ltrans1.ltrans.o
                                 0xfc (size before relaxing)
 *fill*         0x0043fd7e        0x2 
 .rodata.route_main.str1.4
                0x0043fd80       0x15 /mnt/md0/miranda/openwrt/tmp/cca1aXTG.ltrans1.ltrans.o
                                 0x28 (size before relaxing)
 *fill*         0x0043fd95        0x3 
 .rodata.xrtnl_dump_filter.str1.4
                0x0043fd98       0x10 /mnt/md0/miranda/openwrt/tmp/cca1aXTG.ltrans1.ltrans.o
 .rodata.get_addr_1.str1.4
                0x0043fda8        0x4 /mnt/md0/miranda/openwrt/tmp/cca1aXTG.ltrans1.ltrans.o
 .rodata.ll_addr_a2n.str1.4
                0x0043fdac       0x17 /mnt/md0/miranda/openwrt/tmp/cca1aXTG.ltrans1.ltrans.o
                                 0x18 (size before relaxing)
 *fill*         0x0043fdc3        0x1 
 .rodata.get_prefix.str1.4
                0x0043fdc4       0x6a /mnt/md0/miranda/openwrt/tmp/cca1aXTG.ltrans1.ltrans.o
                                 0x6c (size before relaxing)
 *fill*         0x0043fe2e        0x2 
 .rodata.ipneigh_list_or_flush.str1.4
                0x0043fe30       0xec /mnt/md0/miranda/openwrt/tmp/cca1aXTG.ltrans1.ltrans.o
 .rodata.iproute_get.str1.4
                0x0043ff1c       0x5c /mnt/md0/miranda/openwrt/tmp/cca1aXTG.ltrans1.ltrans.o
 .rodata.ipaddr_list_or_flush.str1.4
                0x0043ff78       0x5d /mnt/md0/miranda/openwrt/tmp/cca1aXTG.ltrans1.ltrans.o
                                 0x60 (size before relaxing)
 *fill*         0x0043ffd5        0x3 
 .rodata.iproute_list_or_flush.str1.4
                0x0043ffd8       0x46 /mnt/md0/miranda/openwrt/tmp/cca1aXTG.ltrans1.ltrans.o
                                 0x48 (size before relaxing)
 *fill*         0x0044001e        0x2 
 .rodata.ipaddr_modify.str1.4
                0x00440020       0xad /mnt/md0/miranda/openwrt/tmp/cca1aXTG.ltrans1.ltrans.o
                                 0xb0 (size before relaxing)
 *fill*         0x004400cd        0x3 
 .rodata.do_add_or_delete.str1.4
                0x004400d0       0x7d /mnt/md0/miranda/openwrt/tmp/cca1aXTG.ltrans1.ltrans.o
                                 0x84 (size before relaxing)
 *fill*         0x0044014d        0x3 
 .rodata.iprule_modify.str1.4
                0x00440150       0x25 /mnt/md0/miranda/openwrt/tmp/cca1aXTG.ltrans1.ltrans.o
                                 0x28 (size before relaxing)
 *fill*         0x00440175        0x3 
 .rodata.do_iplink.str1.4
                0x00440178       0x7f /mnt/md0/miranda/openwrt/tmp/cca1aXTG.ltrans1.ltrans.o
                                 0xbc (size before relaxing)
 *fill*         0x004401f7        0x1 
 .rodata.iproute_modify.str1.4
                0x004401f8        0x5 /mnt/md0/miranda/openwrt/tmp/cca1aXTG.ltrans1.ltrans.o
                                 0x14 (size before relaxing)
 *fill*         0x004401fd        0x3 
 .rodata.CSWTCH.6
                0x00440200        0xc /mnt/md0/miranda/openwrt/tmp/cca1aXTG.ltrans1.ltrans.o
 .rodata.str1.4
                0x0044020c      0x1ac /mnt/md0/miranda/openwrt/tmp/cca1aXTG.ltrans1.ltrans.o
                                0x1c8 (size before relaxing)
 .rodata.init_tab.0
                0x004403b8       0x34 /mnt/md0/miranda/openwrt/tmp/cca1aXTG.ltrans1.ltrans.o
 .rodata.flag_masks.3
                0x004403ec       0x1c /mnt/md0/miranda/openwrt/tmp/cca1aXTG.ltrans1.ltrans.o
 .rodata.ttab.0
                0x00440408       0x4c /mnt/md0/miranda/openwrt/tmp/cca1aXTG.ltrans1.ltrans.o
 .rodata.ttab6.1
                0x00440454       0x48 /mnt/md0/miranda/openwrt/tmp/cca1aXTG.ltrans1.ltrans.o
 .rodata.flagvals
                0x0044049c       0x2c /mnt/md0/miranda/openwrt/tmp/cca1aXTG.ltrans1.ltrans.o
 .rodata.udhcp_scan_options.str1.4
                0x004404c8       0x23 /mnt/md0/miranda/openwrt/tmp/cca1aXTG.ltrans2.ltrans.o
                                 0x24 (size before relaxing)
 *fill*         0x004404eb        0x1 
 .rodata.change_listen_mode.str1.4
                0x004404ec        0xd /mnt/md0/miranda/openwrt/tmp/cca1aXTG.ltrans2.ltrans.o
                                 0x10 (size before relaxing)
 *fill*         0x004404f9        0x3 
 .rodata.signal_handler.lto_priv.0.str1.4
                0x004404fc       0x12 /mnt/md0/miranda/openwrt/tmp/cca1aXTG.ltrans2.ltrans.o
                                 0x14 (size before relaxing)
 *fill*         0x0044050e        0x2 
 .rodata.parse_meminfo.lto_priv.0.str1.4
                0x00440510       0x53 /mnt/md0/miranda/openwrt/tmp/cca1aXTG.ltrans2.ltrans.o
                                 0x54 (size before relaxing)
 *fill*         0x00440563        0x1 
 .rodata.free_main.str1.4
                0x00440564       0x9c /mnt/md0/miranda/openwrt/tmp/cca1aXTG.ltrans2.ltrans.o
 .rodata.kill_main.str1.4
                0x00440600       0x86 /mnt/md0/miranda/openwrt/tmp/cca1aXTG.ltrans2.ltrans.o
                                 0xa0 (size before relaxing)
 *fill*         0x00440686        0x2 
 .rodata.pgrep_main.str1.4
                0x00440688       0x17 /mnt/md0/miranda/openwrt/tmp/cca1aXTG.ltrans2.ltrans.o
                                 0x1c (size before relaxing)
 .rodata.pidof_main.str1.4
                0x0044069f       0x17 /mnt/md0/miranda/openwrt/tmp/cca1aXTG.ltrans2.ltrans.o
                                  0x8 (size before relaxing)
 *fill*         0x0044069f        0x1 
 .rodata.ps_main.str1.4
                0x004406a0       0x37 /mnt/md0/miranda/openwrt/tmp/cca1aXTG.ltrans2.ltrans.o
                                 0x38 (size before relaxing)
 *fill*         0x004406d7        0x1 
 .rodata.sysctl_act_on_setting.str1.4
                0x004406d8       0xab /mnt/md0/miranda/openwrt/tmp/cca1aXTG.ltrans2.ltrans.o
                                 0xb4 (size before relaxing)
 *fill*         0x00440783        0x1 
 .rodata.sysctl_main.str1.4
                0x00440784       0x37 /mnt/md0/miranda/openwrt/tmp/cca1aXTG.ltrans2.ltrans.o
                                 0x3c (size before relaxing)
 *fill*         0x004407bb        0x1 
 .rodata.do_stats.str1.4
                0x004407bc       0x24 /mnt/md0/miranda/openwrt/tmp/cca1aXTG.ltrans2.ltrans.o
 .rodata.display_process_list.str1.4
                0x004407e0      0x110 /mnt/md0/miranda/openwrt/tmp/cca1aXTG.ltrans2.ltrans.o
                                0x128 (size before relaxing)
 .rodata.top_main.str1.4
                0x004408f0       0x21 /mnt/md0/miranda/openwrt/tmp/cca1aXTG.ltrans2.ltrans.o
                                 0x2c (size before relaxing)
 *fill*         0x00440911        0x3 
 .rodata.uptime_main.str1.4
                0x00440914       0x80 /mnt/md0/miranda/openwrt/tmp/cca1aXTG.ltrans2.ltrans.o
                                 0x84 (size before relaxing)
 .rodata.tryexec.str1.4
                0x00440994        0x4 /mnt/md0/miranda/openwrt/tmp/cca1aXTG.ltrans2.ltrans.o
 .rodata.sprint_nip.lto_priv.0.str1.4
                0x00440998        0xe /mnt/md0/miranda/openwrt/tmp/cca1aXTG.ltrans2.ltrans.o
                                 0x10 (size before relaxing)
 *fill*         0x004409a6        0x2 
 .rodata.d4_run_script.str1.4
                0x004409a8       0x54 /mnt/md0/miranda/openwrt/tmp/cca1aXTG.ltrans2.ltrans.o
 .rodata.d4_run_script_deconfig.str1.4
                0x004409fc        0x9 /mnt/md0/miranda/openwrt/tmp/cca1aXTG.ltrans2.ltrans.o
                                  0xc (size before relaxing)
 *fill*         0x00440a05        0x3 
 .rodata.bcast_or_ucast.str1.4
                0x00440a08       0x3c /mnt/md0/miranda/openwrt/tmp/cca1aXTG.ltrans2.ltrans.o
 .rodata.udhcp_add_binary_option.str1.4
                0x00440a44       0x2a /mnt/md0/miranda/openwrt/tmp/cca1aXTG.ltrans2.ltrans.o
                                 0x2c (size before relaxing)
 *fill*         0x00440a6e        0x2 
 .rodata.udhcp_add_simple_option.str1.4
                0x00440a70       0x18 /mnt/md0/miranda/openwrt/tmp/cca1aXTG.ltrans2.ltrans.o
 .rodata.send_renew.str1.4
                0x00440a88       0x2f /mnt/md0/miranda/openwrt/tmp/cca1aXTG.ltrans2.ltrans.o
                                 0x30 (size before relaxing)
 *fill*         0x00440ab7        0x1 
 .rodata.perform_release.str1.4
                0x00440ab8       0x50 /mnt/md0/miranda/openwrt/tmp/cca1aXTG.ltrans2.ltrans.o
 .rodata.udhcpc_main.str1.4
                0x00440b08      0x18c /mnt/md0/miranda/openwrt/tmp/cca1aXTG.ltrans2.ltrans.o
                                0x194 (size before relaxing)
 .rodata.sprint_status48.str1.4
                0x00440c94       0x1b /mnt/md0/miranda/openwrt/tmp/cca1aXTG.ltrans2.ltrans.o
                                 0x24 (size before relaxing)
 *fill*         0x00440caf        0x1 
 .rodata.changepath.lto_priv.0.str1.4
                0x00440cb0        0x8 /mnt/md0/miranda/openwrt/tmp/cca1aXTG.ltrans2.ltrans.o
 .rodata.showjob.str1.4
                0x00440cb8       0x26 /mnt/md0/miranda/openwrt/tmp/cca1aXTG.ltrans2.ltrans.o
                                 0x2c (size before relaxing)
 *fill*         0x00440cde        0x2 
 .rodata.ash_vmsg.lto_priv.0.str1.4
                0x00440ce0        0xa /mnt/md0/miranda/openwrt/tmp/cca1aXTG.ltrans2.ltrans.o
                                 0x14 (size before relaxing)
 *fill*         0x00440cea        0x2 
 .rodata.xtcsetpgrp.str1.4
                0x00440cec       0x20 /mnt/md0/miranda/openwrt/tmp/cca1aXTG.ltrans2.ltrans.o
 .rodata.xdup_CLOEXEC_and_close.str1.4
                0x00440d0c        0x7 /mnt/md0/miranda/openwrt/tmp/cca1aXTG.ltrans2.ltrans.o
                                  0x8 (size before relaxing)
 *fill*         0x00440d13        0x1 
 .rodata.raise_error_syntax.lto_priv.0.str1.4
                0x00440d14       0x11 /mnt/md0/miranda/openwrt/tmp/cca1aXTG.ltrans2.ltrans.o
                                 0x14 (size before relaxing)
 *fill*         0x00440d25        0x3 
 .rodata.cmdputs.str1.4
                0x00440d28       0x1b /mnt/md0/miranda/openwrt/tmp/cca1aXTG.ltrans2.ltrans.o
                                 0x1c (size before relaxing)
 *fill*         0x00440d43        0x1 
 .rodata.cmdtxt.str1.4
                0x00440d44       0xac /mnt/md0/miranda/openwrt/tmp/cca1aXTG.ltrans2.ltrans.o
                                 0xc0 (size before relaxing)
 .rodata.cvtnum.str1.4
                0x00440df0        0x5 /mnt/md0/miranda/openwrt/tmp/cca1aXTG.ltrans2.ltrans.o
                                  0x8 (size before relaxing)
 *fill*         0x00440df5        0x3 
 .rodata.getjob.str1.4
                0x00440df8       0x65 /mnt/md0/miranda/openwrt/tmp/cca1aXTG.ltrans2.ltrans.o
                                 0x68 (size before relaxing)
 *fill*         0x00440e5d        0x3 
 .rodata.killcmd.lto_priv.0.str1.4
                0x00440e60        0xb /mnt/md0/miranda/openwrt/tmp/cca1aXTG.ltrans2.ltrans.o
                                  0xc (size before relaxing)
 *fill*         0x00440e6b        0x1 
 .rodata.number.lto_priv.0.str1.4
                0x00440e6c       0x13 /mnt/md0/miranda/openwrt/tmp/cca1aXTG.ltrans2.ltrans.o
                                 0x14 (size before relaxing)
 *fill*         0x00440e7f        0x1 
 .rodata.printalias.str1.4
                0x00440e80        0x7 /mnt/md0/miranda/openwrt/tmp/cca1aXTG.ltrans2.ltrans.o
                                  0x8 (size before relaxing)
 *fill*         0x00440e87        0x1 
 .rodata.nextopt.lto_priv.0.str1.4
                0x00440e88       0x2a /mnt/md0/miranda/openwrt/tmp/cca1aXTG.ltrans2.ltrans.o
                                 0x2c (size before relaxing)
 *fill*         0x00440eb2        0x2 
 .rodata.cdopt.str1.4
                0x00440eb4        0x3 /mnt/md0/miranda/openwrt/tmp/cca1aXTG.ltrans2.ltrans.o
                                  0x4 (size before relaxing)
 .rodata.waitcmd.lto_priv.0.str1.4
                0x00440eb7        0x3 /mnt/md0/miranda/openwrt/tmp/cca1aXTG.ltrans2.ltrans.o
                                  0x4 (size before relaxing)
 .rodata.lookupvar.lto_priv.0.str1.4
                0x00440eb7        0x4 /mnt/md0/miranda/openwrt/tmp/cca1aXTG.ltrans2.ltrans.o
 *fill*         0x00440eb7        0x1 
 .rodata.setvareq.lto_priv.0.str1.4
                0x00440eb8       0x13 /mnt/md0/miranda/openwrt/tmp/cca1aXTG.ltrans2.ltrans.o
                                 0x14 (size before relaxing)
 *fill*         0x00440ecb        0x1 
 .rodata.setvar.lto_priv.0.str1.4
                0x00440ecc       0x18 /mnt/md0/miranda/openwrt/tmp/cca1aXTG.ltrans2.ltrans.o
 .rodata.padvance.lto_priv.0.str1.4
                0x00440ee4        0x3 /mnt/md0/miranda/openwrt/tmp/cca1aXTG.ltrans2.ltrans.o
                                  0x8 (size before relaxing)
 *fill*         0x00440ee7        0x1 
 .rodata.setpwd.lto_priv.0.str1.4
                0x00440ee8        0xc /mnt/md0/miranda/openwrt/tmp/cca1aXTG.ltrans2.ltrans.o
 .rodata.cdcmd.lto_priv.0.str1.4
                0x00440ef4       0x1b /mnt/md0/miranda/openwrt/tmp/cca1aXTG.ltrans2.ltrans.o
                                 0x28 (size before relaxing)
 *fill*         0x00440f0f        0x1 
 .rodata.aliascmd.lto_priv.0.str1.4
                0x00440f10       0x1a /mnt/md0/miranda/openwrt/tmp/cca1aXTG.ltrans2.ltrans.o
                                 0x1c (size before relaxing)
 *fill*         0x00440f2a        0x2 
 .rodata.unaliascmd.lto_priv.0.str1.4
                0x00440f2c        0x8 /mnt/md0/miranda/openwrt/tmp/cca1aXTG.ltrans2.ltrans.o
                                  0xc (size before relaxing)
 .rodata.forkchild.str1.4
                0x00440f34       0x21 /mnt/md0/miranda/openwrt/tmp/cca1aXTG.ltrans2.ltrans.o
                                 0x30 (size before relaxing)
 *fill*         0x00440f55        0x3 
 .rodata.setjobctl.lto_priv.0.str1.4
                0x00440f58       0x29 /mnt/md0/miranda/openwrt/tmp/cca1aXTG.ltrans2.ltrans.o
                                 0x38 (size before relaxing)
 .rodata.jobscmd.lto_priv.0.str1.4
                0x00440f81       0x29 /mnt/md0/miranda/openwrt/tmp/cca1aXTG.ltrans2.ltrans.o
                                  0x4 (size before relaxing)
 *fill*         0x00440f81        0x3 
 .rodata.forkshell.lto_priv.0.str1.4
                0x00440f84        0xf /mnt/md0/miranda/openwrt/tmp/cca1aXTG.ltrans2.ltrans.o
                                 0x10 (size before relaxing)
 *fill*         0x00440f93        0x1 
 .rodata.fg_bgcmd.lto_priv.0.str1.4
                0x00440f94        0xe /mnt/md0/miranda/openwrt/tmp/cca1aXTG.ltrans2.ltrans.o
                                 0x10 (size before relaxing)
 *fill*         0x00440fa2        0x2 
 .rodata.stoppedjobs.lto_priv.0.str1.4
                0x00440fa4       0x18 /mnt/md0/miranda/openwrt/tmp/cca1aXTG.ltrans2.ltrans.o
 .rodata.varvalue.str1.4
                0x00440fbc       0x11 /mnt/md0/miranda/openwrt/tmp/cca1aXTG.ltrans2.ltrans.o
                                 0x14 (size before relaxing)
 *fill*         0x00440fcd        0x3 
 .rodata.shellexec.lto_priv.0.str1.4
                0x00440fd0        0x7 /mnt/md0/miranda/openwrt/tmp/cca1aXTG.ltrans2.ltrans.o
                                 0x14 (size before relaxing)
 *fill*         0x00440fd7        0x1 
 .rodata.hashcmd.lto_priv.0.str1.4
                0x00440fd8        0x6 /mnt/md0/miranda/openwrt/tmp/cca1aXTG.ltrans2.ltrans.o
                                 0x10 (size before relaxing)
 *fill*         0x00440fde        0x2 
 .rodata.describe_command.str1.4
                0x00440fe0       0x71 /mnt/md0/miranda/openwrt/tmp/cca1aXTG.ltrans2.ltrans.o
                                 0x80 (size before relaxing)
 *fill*         0x00441051        0x3 
 .rodata.commandcmd.lto_priv.0.str1.4
                0x00441054        0x4 /mnt/md0/miranda/openwrt/tmp/cca1aXTG.ltrans2.ltrans.o
 .rodata.expredir.lto_priv.0.str1.4
                0x00441058       0x1a /mnt/md0/miranda/openwrt/tmp/cca1aXTG.ltrans2.ltrans.o
                                 0x1c (size before relaxing)
 *fill*         0x00441072        0x2 
 .rodata.argstr.str1.4
                0x00441074       0x23 /mnt/md0/miranda/openwrt/tmp/cca1aXTG.ltrans2.ltrans.o
                                 0x24 (size before relaxing)
 *fill*         0x00441097        0x1 
 .rodata.subevalvar.str1.4
                0x00441098       0x31 /mnt/md0/miranda/openwrt/tmp/cca1aXTG.ltrans2.ltrans.o
                                 0x34 (size before relaxing)
 *fill*         0x004410c9        0x3 
 .rodata.redirect.lto_priv.0.str1.4
                0x004410cc       0x50 /mnt/md0/miranda/openwrt/tmp/cca1aXTG.ltrans2.ltrans.o
 .rodata.optschanged.lto_priv.0.str1.4
                0x0044111c       0x22 /mnt/md0/miranda/openwrt/tmp/cca1aXTG.ltrans2.ltrans.o
                                 0x24 (size before relaxing)
 *fill*         0x0044113e        0x2 
 .rodata.str1.4
                0x00441140      0x122 /mnt/md0/miranda/openwrt/tmp/cca1aXTG.ltrans2.ltrans.o
                                0x12c (size before relaxing)
 *fill*         0x00441262        0x2 
 .rodata.tokname_array.lto_priv.0
                0x00441264       0x78 /mnt/md0/miranda/openwrt/tmp/cca1aXTG.ltrans2.ltrans.o
                0x00441264                tokname_array.lto_priv.0
 .rodata.optletters_optnames.lto_priv.0
                0x004412dc       0x44 /mnt/md0/miranda/openwrt/tmp/cca1aXTG.ltrans2.ltrans.o
                0x004412dc                optletters_optnames.lto_priv.0
 .rodata.CSWTCH.1474
                0x00441320        0x4 /mnt/md0/miranda/openwrt/tmp/cca1aXTG.ltrans2.ltrans.o
 .rodata.duration_suffixes.lto_priv.0
                0x00441324       0x28 /mnt/md0/miranda/openwrt/tmp/cca1aXTG.ltrans2.ltrans.o
                0x00441324                duration_suffixes.lto_priv.0
 .rodata.localcmd.str1.4
                0x0044134c       0x12 /mnt/md0/miranda/openwrt/tmp/cca1aXTG.ltrans3.ltrans.o
                                 0x14 (size before relaxing)
 *fill*         0x0044135e        0x2 
 .rodata.execcmd.str1.4
                0x00441360        0x3 /mnt/md0/miranda/openwrt/tmp/cca1aXTG.ltrans3.ltrans.o
                                  0x4 (size before relaxing)
 .rodata.breakcmd.str1.4
                0x00441363       0x14 /mnt/md0/miranda/openwrt/tmp/cca1aXTG.ltrans3.ltrans.o
 *fill*         0x00441363        0x1 
 .rodata.set_discard_flag.str1.4
                0x00441364        0xe /mnt/md0/miranda/openwrt/tmp/cca1aXTG.ltrans3.ltrans.o
                                 0x10 (size before relaxing)
 *fill*         0x00441372        0x2 
 .rodata.historycmd.str1.4
                0x00441374        0x8 /mnt/md0/miranda/openwrt/tmp/cca1aXTG.ltrans3.ltrans.o
 .rodata.__pgetc.str1.4
                0x0044137c        0xf /mnt/md0/miranda/openwrt/tmp/cca1aXTG.ltrans3.ltrans.o
                                 0x18 (size before relaxing)
 .rodata.setinputfile.str1.4
                0x0044138b       0x1c /mnt/md0/miranda/openwrt/tmp/cca1aXTG.ltrans3.ltrans.o
 *fill*         0x0044138b        0x1 
 .rodata.options.str1.4
                0x0044138c       0x50 /mnt/md0/miranda/openwrt/tmp/cca1aXTG.ltrans3.ltrans.o
                                 0x54 (size before relaxing)
 .rodata.showvars.str1.4
                0x004413dc        0xc /mnt/md0/miranda/openwrt/tmp/cca1aXTG.ltrans3.ltrans.o
                                 0x10 (size before relaxing)
 .rodata.exportcmd.str1.4
                0x004413e8        0x3 /mnt/md0/miranda/openwrt/tmp/cca1aXTG.ltrans3.ltrans.o
                                  0x4 (size before relaxing)
 *fill*         0x004413eb        0x1 
 .rodata.change_seconds.str1.4
                0x004413ec        0x5 /mnt/md0/miranda/openwrt/tmp/cca1aXTG.ltrans3.ltrans.o
                                  0x8 (size before relaxing)
 *fill*         0x004413f1        0x3 
 .rodata.change_realtime.str1.4
                0x004413f4        0xa /mnt/md0/miranda/openwrt/tmp/cca1aXTG.ltrans3.ltrans.o
                                  0xc (size before relaxing)
 *fill*         0x004413fe        0x2 
 .rodata.getoptscmd.str1.4
                0x00441400       0x67 /mnt/md0/miranda/openwrt/tmp/cca1aXTG.ltrans3.ltrans.o
                                 0x68 (size before relaxing)
 *fill*         0x00441467        0x1 
 .rodata.tokname.str1.4
                0x00441468        0x5 /mnt/md0/miranda/openwrt/tmp/cca1aXTG.ltrans3.ltrans.o
                                  0x8 (size before relaxing)
 *fill*         0x0044146d        0x3 
 .rodata.raise_error_unexpected_syntax.str1.4
                0x00441470       0x20 /mnt/md0/miranda/openwrt/tmp/cca1aXTG.ltrans3.ltrans.o
 .rodata.readtoken1.str1.4
                0x00441490       0x56 /mnt/md0/miranda/openwrt/tmp/cca1aXTG.ltrans3.ltrans.o
                                 0x58 (size before relaxing)
 *fill*         0x004414e6        0x2 
 .rodata.parse_command.str1.4
                0x004414e8       0x2e /mnt/md0/miranda/openwrt/tmp/cca1aXTG.ltrans3.ltrans.o
                                 0x3c (size before relaxing)
 *fill*         0x00441516        0x2 
 .rodata.cmdloop.str1.4
                0x00441518       0x1d /mnt/md0/miranda/openwrt/tmp/cca1aXTG.ltrans3.ltrans.o
                                 0x20 (size before relaxing)
 *fill*         0x00441535        0x3 
 .rodata.dotcmd.str1.4
                0x00441538        0xe /mnt/md0/miranda/openwrt/tmp/cca1aXTG.ltrans3.ltrans.o
                                 0x10 (size before relaxing)
 *fill*         0x00441546        0x2 
 .rodata.unsetcmd.str1.4
                0x00441548        0x3 /mnt/md0/miranda/openwrt/tmp/cca1aXTG.ltrans3.ltrans.o
                                  0x4 (size before relaxing)
 *fill*         0x0044154b        0x1 
 .rodata.trapcmd.str1.4
                0x0044154c       0x31 /mnt/md0/miranda/openwrt/tmp/cca1aXTG.ltrans3.ltrans.o
                                 0x38 (size before relaxing)
 *fill*         0x0044157d        0x3 
 .rodata.timescmd.str1.4
                0x00441580        0xe /mnt/md0/miranda/openwrt/tmp/cca1aXTG.ltrans3.ltrans.o
                                 0x10 (size before relaxing)
 *fill*         0x0044158e        0x2 
 .rodata.letcmd.str1.4
                0x00441590       0x14 /mnt/md0/miranda/openwrt/tmp/cca1aXTG.ltrans3.ltrans.o
 .rodata.readcmd.str1.4
                0x004415a4       0x72 /mnt/md0/miranda/openwrt/tmp/cca1aXTG.ltrans3.ltrans.o
                                 0x74 (size before relaxing)
 *fill*         0x00441616        0x2 
 .rodata.umaskcmd.str1.4
                0x00441618       0x19 /mnt/md0/miranda/openwrt/tmp/cca1aXTG.ltrans3.ltrans.o
                                 0x20 (size before relaxing)
 *fill*         0x00441631        0x3 
 .rodata.printlim.str1.4
                0x00441634       0x12 /mnt/md0/miranda/openwrt/tmp/cca1aXTG.ltrans3.ltrans.o
                                 0x14 (size before relaxing)
 *fill*         0x00441646        0x2 
 .rodata.ulimitcmd.str1.4
                0x00441648       0x20 /mnt/md0/miranda/openwrt/tmp/cca1aXTG.ltrans3.ltrans.o
                                 0x34 (size before relaxing)
 .rodata.init.str1.4
                0x00441668       0x25 /mnt/md0/miranda/openwrt/tmp/cca1aXTG.ltrans3.ltrans.o
                                 0x30 (size before relaxing)
 *fill*         0x0044168d        0x3 
 .rodata.logger_main.str1.4
                0x00441690       0x31 /mnt/md0/miranda/openwrt/tmp/cca1aXTG.ltrans3.ltrans.o
                                 0x3c (size before relaxing)
 *fill*         0x004416c1        0x3 
 .rodata.dmesg_main.str1.4
                0x004416c4       0x14 /mnt/md0/miranda/openwrt/tmp/cca1aXTG.ltrans3.ltrans.o
 .rodata.flock_main.str1.4
                0x004416d8       0x27 /mnt/md0/miranda/openwrt/tmp/cca1aXTG.ltrans3.ltrans.o
                                 0x3c (size before relaxing)
 *fill*         0x004416ff        0x1 
 .rodata.hexdump_main.str1.4
                0x00441700       0x62 /mnt/md0/miranda/openwrt/tmp/cca1aXTG.ltrans3.ltrans.o
                                 0x64 (size before relaxing)
 *fill*         0x00441762        0x2 
 .rodata.read_rtc.str1.4
                0x00441764       0x18 /mnt/md0/miranda/openwrt/tmp/cca1aXTG.ltrans3.ltrans.o
 .rodata.set_kernel_tz.str1.4
                0x0044177c       0x10 /mnt/md0/miranda/openwrt/tmp/cca1aXTG.ltrans3.ltrans.o
 .rodata.hwclock_main.str1.4
                0x0044177c       0x3a /mnt/md0/miranda/openwrt/tmp/cca1aXTG.ltrans3.ltrans.o
                                 0x3c (size before relaxing)
 *fill*         0x004417b6        0x2 
 .rodata.mkswap_main.str1.4
                0x004417b8       0x5f /mnt/md0/miranda/openwrt/tmp/cca1aXTG.ltrans3.ltrans.o
                                 0x60 (size before relaxing)
 *fill*         0x00441817        0x1 
 .rodata.append_mount_options.str1.4
                0x00441818        0x8 /mnt/md0/miranda/openwrt/tmp/cca1aXTG.ltrans3.ltrans.o
 .rodata.mount_it_now.str1.4
                0x00441820       0x3a /mnt/md0/miranda/openwrt/tmp/cca1aXTG.ltrans3.ltrans.o
                                 0x3c (size before relaxing)
 *fill*         0x0044185a        0x2 
 .rodata.cut_out_ull_opt.str1.4
                0x0044185c       0x10 /mnt/md0/miranda/openwrt/tmp/cca1aXTG.ltrans3.ltrans.o
 .rodata.singlemount.str1.4
                0x0044186c       0xcd /mnt/md0/miranda/openwrt/tmp/cca1aXTG.ltrans3.ltrans.o
                                 0xd4 (size before relaxing)
 *fill*         0x00441939        0x3 
 .rodata.mount_main.str1.4
                0x0044193c       0x5c /mnt/md0/miranda/openwrt/tmp/cca1aXTG.ltrans3.ltrans.o
                                 0x74 (size before relaxing)
 .rodata.swap_on_off_main.str1.4
                0x00441998       0x2c /mnt/md0/miranda/openwrt/tmp/cca1aXTG.ltrans3.ltrans.o
 .rodata.ash_main.str1.4
                0x004419c4       0x38 /mnt/md0/miranda/openwrt/tmp/cca1aXTG.ltrans3.ltrans.o
                                 0x40 (size before relaxing)
 .rodata.find_command.lto_priv.0.str1.4
                0x004419fc       0x15 /mnt/md0/miranda/openwrt/tmp/cca1aXTG.ltrans3.ltrans.o
                                 0x2c (size before relaxing)
 *fill*         0x00441a11        0x3 
 .rodata.evalcommand.lto_priv.0.str1.4
                0x00441a14       0x1e /mnt/md0/miranda/openwrt/tmp/cca1aXTG.ltrans3.ltrans.o
                                 0x28 (size before relaxing)
 *fill*         0x00441a32        0x2 
 .rodata.evaluate_string.lto_priv.0.str1.4
                0x00441a34       0x18 /mnt/md0/miranda/openwrt/tmp/cca1aXTG.ltrans3.ltrans.o
 .rodata.arith_lookup_val.str1.4
                0x00441a4c       0x23 /mnt/md0/miranda/openwrt/tmp/cca1aXTG.ltrans3.ltrans.o
                                 0x24 (size before relaxing)
 *fill*         0x00441a6f        0x1 
 .rodata.arith_apply.str1.4
                0x00441a70       0x3f /mnt/md0/miranda/openwrt/tmp/cca1aXTG.ltrans3.ltrans.o
                                 0x48 (size before relaxing)
 *fill*         0x00441aaf        0x1 
 .rodata.mount_options
                0x00441ab0       0xac /mnt/md0/miranda/openwrt/tmp/cca1aXTG.ltrans3.ltrans.o
 .rodata.bkm_suffixes
                0x00441b5c       0x20 /mnt/md0/miranda/openwrt/tmp/cca1aXTG.ltrans3.ltrans.o
                0x00441b5c                bkm_suffixes
 .rodata.str1.4
                0x00441b7c      0x31a /mnt/md0/miranda/openwrt/tmp/cca1aXTG.ltrans3.ltrans.o
                                0x334 (size before relaxing)
 *fill*         0x00441e96        0x2 
 .rodata.add_strings
                0x00441e98       0x14 /mnt/md0/miranda/openwrt/tmp/cca1aXTG.ltrans3.ltrans.o
 .rodata.__compound_literal.0
                0x00441eac       0x68 /mnt/md0/miranda/openwrt/tmp/cca1aXTG.ltrans3.ltrans.o
 .rodata.__compound_literal.1
                0x00441f14       0xb8 /mnt/md0/miranda/openwrt/tmp/cca1aXTG.ltrans3.ltrans.o
 .rodata.varinit_data
                0x00441fcc       0x84 /mnt/md0/miranda/openwrt/tmp/cca1aXTG.ltrans3.ltrans.o
 .rodata.const_int_0
                0x00442050        0x4 /mnt/md0/miranda/openwrt/tmp/cca1aXTG.ltrans3.ltrans.o
 .rodata.null_bltin.1
                0x00442054        0x8 /mnt/md0/miranda/openwrt/tmp/cca1aXTG.ltrans3.ltrans.o
 .rodata.builtintab
                0x0044205c      0x158 /mnt/md0/miranda/openwrt/tmp/cca1aXTG.ltrans3.ltrans.o
 .rodata.switch_root_main.str1.4
                0x004421b4       0x5a /mnt/md0/miranda/openwrt/tmp/cca1aXTG.ltrans4.ltrans.o
                                 0x78 (size before relaxing)
 *fill*         0x0044220e        0x2 
 .rodata.process_pid_str.str1.4
                0x00442210       0x8e /mnt/md0/miranda/openwrt/tmp/cca1aXTG.ltrans4.ltrans.o
                                 0x98 (size before relaxing)
 *fill*         0x0044229e        0x2 
 .rodata.append_ext.str1.4
                0x004422a0        0x6 /mnt/md0/miranda/openwrt/tmp/cca1aXTG.ltrans4.ltrans.o
                                  0x8 (size before relaxing)
 .rodata.tostring.str1.4
                0x004422a6        0x8 /mnt/md0/miranda/openwrt/tmp/cca1aXTG.ltrans4.ltrans.o
 *fill*         0x004422a6        0x2 
 .rodata.taskset_main.str1.4
                0x004422a8        0xe /mnt/md0/miranda/openwrt/tmp/cca1aXTG.ltrans4.ltrans.o
                                 0x10 (size before relaxing)
 *fill*         0x004422b6        0x2 
 .rodata.umount_main.str1.4
                0x004422b8       0x59 /mnt/md0/miranda/openwrt/tmp/cca1aXTG.ltrans4.ltrans.o
                                 0x80 (size before relaxing)
 *fill*         0x00442311        0x3 
 .rodata.make_new_name_gunzip.str1.4
                0x00442314        0x4 /mnt/md0/miranda/openwrt/tmp/cca1aXTG.ltrans4.ltrans.o
 .rodata.putOctal.str1.4
                0x00442318        0x7 /mnt/md0/miranda/openwrt/tmp/cca1aXTG.ltrans4.ltrans.o
                                  0x8 (size before relaxing)
 *fill*         0x0044231f        0x1 
 .rodata.chksum_and_xwrite_tar_header.str1.4
                0x00442320        0xd /mnt/md0/miranda/openwrt/tmp/cca1aXTG.ltrans4.ltrans.o
                                 0x10 (size before relaxing)
 *fill*         0x0044232d        0x3 
 .rodata.writeLongname.str1.4
                0x00442330        0xe /mnt/md0/miranda/openwrt/tmp/cca1aXTG.ltrans4.ltrans.o
                                 0x10 (size before relaxing)
 *fill*         0x0044233e        0x2 
 .rodata.dd_output_status.str1.4
                0x00442340       0x2c /mnt/md0/miranda/openwrt/tmp/cca1aXTG.ltrans4.ltrans.o
 .rodata.writeTarHeader.str1.4
                0x0044236c       0x16 /mnt/md0/miranda/openwrt/tmp/cca1aXTG.ltrans4.ltrans.o
                                 0x20 (size before relaxing)
 *fill*         0x00442382        0x2 
 .rodata.vfork_compressor.str1.4
                0x00442384        0x3 /mnt/md0/miranda/openwrt/tmp/cca1aXTG.ltrans4.ltrans.o
                                  0xc (size before relaxing)
 *fill*         0x00442387        0x1 
 .rodata.writeTarFile.str1.4
                0x00442388       0x3c /mnt/md0/miranda/openwrt/tmp/cca1aXTG.ltrans4.ltrans.o
                                 0x44 (size before relaxing)
 .rodata.chmod_main.str1.4
                0x004423c4        0x3 /mnt/md0/miranda/openwrt/tmp/cca1aXTG.ltrans4.ltrans.o
                                  0x4 (size before relaxing)
 *fill*         0x004423c7        0x1 
 .rodata.header_verbose_list.str1.4
                0x004423c8       0x37 /mnt/md0/miranda/openwrt/tmp/cca1aXTG.ltrans4.ltrans.o
                                 0x38 (size before relaxing)
 *fill*         0x004423ff        0x1 
 .rodata.seek_by_jump.str1.4
                0x00442400        0xd /mnt/md0/miranda/openwrt/tmp/cca1aXTG.ltrans4.ltrans.o
                                 0x10 (size before relaxing)
 *fill*         0x0044240d        0x3 
 .rodata.data_extract_all.str1.4
                0x00442410       0xdb /mnt/md0/miranda/openwrt/tmp/cca1aXTG.ltrans4.ltrans.o
                                 0xdc (size before relaxing)
 *fill*         0x004424eb        0x1 
 .rodata.fill_bitbuffer.str1.4
                0x004424ec       0x17 /mnt/md0/miranda/openwrt/tmp/cca1aXTG.ltrans4.ltrans.o
                                 0x18 (size before relaxing)
 *fill*         0x00442503        0x1 
 .rodata.inflate_unzip_internal.str1.4
                0x00442504       0x24 /mnt/md0/miranda/openwrt/tmp/cca1aXTG.ltrans4.ltrans.o
                                 0x2c (size before relaxing)
 .rodata.clear_main.str1.4
                0x00442528        0x8 /mnt/md0/miranda/openwrt/tmp/cca1aXTG.ltrans4.ltrans.o
 .rodata.top_up.str1.4
                0x00442528        0xc /mnt/md0/miranda/openwrt/tmp/cca1aXTG.ltrans4.ltrans.o
 .rodata.unpack_gz_stream.str1.4
                0x00442528       0x2d /mnt/md0/miranda/openwrt/tmp/cca1aXTG.ltrans4.ltrans.o
                                 0x30 (size before relaxing)
 *fill*         0x00442555        0x3 
 .rodata.getOctal.str1.4
                0x00442558       0x24 /mnt/md0/miranda/openwrt/tmp/cca1aXTG.ltrans4.ltrans.o
 .rodata.strip_unsafe_prefix.str1.4
                0x0044257c       0x32 /mnt/md0/miranda/openwrt/tmp/cca1aXTG.ltrans4.ltrans.o
                                 0x34 (size before relaxing)
 *fill*         0x004425ae        0x2 
 .rodata.writeFileToTarball.str1.4
                0x004425b0       0x36 /mnt/md0/miranda/openwrt/tmp/cca1aXTG.ltrans4.ltrans.o
                                 0x38 (size before relaxing)
 *fill*         0x004425e6        0x2 
 .rodata.get_header_tar.str1.4
                0x004425e8       0xab /mnt/md0/miranda/openwrt/tmp/cca1aXTG.ltrans4.ltrans.o
                                 0xb4 (size before relaxing)
 *fill*         0x00442693        0x1 
 .rodata.bbunpack.str1.4
                0x00442694       0x73 /mnt/md0/miranda/openwrt/tmp/cca1aXTG.ltrans4.ltrans.o
                                 0x80 (size before relaxing)
 *fill*         0x00442707        0x1 
 .rodata.gunzip_main.str1.4
                0x00442708        0x9 /mnt/md0/miranda/openwrt/tmp/cca1aXTG.ltrans4.ltrans.o
                                  0xc (size before relaxing)
 *fill*         0x00442711        0x3 
 .rodata.gzip_main.str1.4
                0x00442714       0x17 /mnt/md0/miranda/openwrt/tmp/cca1aXTG.ltrans4.ltrans.o
                                 0x18 (size before relaxing)
 *fill*         0x0044272b        0x1 
 .rodata.tar_main.str1.4
                0x0044272c       0x39 /mnt/md0/miranda/openwrt/tmp/cca1aXTG.ltrans4.ltrans.o
                                 0x44 (size before relaxing)
 *fill*         0x00442765        0x3 
 .rodata.reset_main.str1.4
                0x00442768       0x19 /mnt/md0/miranda/openwrt/tmp/cca1aXTG.ltrans4.ltrans.o
                                 0x1c (size before relaxing)
 *fill*         0x00442781        0x3 
 .rodata.resize_main.str1.4
                0x00442784       0x23 /mnt/md0/miranda/openwrt/tmp/cca1aXTG.ltrans4.ltrans.o
                                 0x24 (size before relaxing)
 .rodata.cat_main.str1.4
                0x004427a7       0x23 /mnt/md0/miranda/openwrt/tmp/cca1aXTG.ltrans4.ltrans.o
                                  0x4 (size before relaxing)
 *fill*         0x004427a7        0x1 
 .rodata.fileAction.lto_priv.0.str1.4
                0x004427a8       0x12 /mnt/md0/miranda/openwrt/tmp/cca1aXTG.ltrans4.ltrans.o
                                 0x14 (size before relaxing)
 .rodata.chgrp_main.str1.4
                0x004427ba       0x12 /mnt/md0/miranda/openwrt/tmp/cca1aXTG.ltrans4.ltrans.o
                                  0x4 (size before relaxing)
 *fill*         0x004427ba        0x2 
 .rodata.chroot_main.str1.4
                0x004427bc        0x3 /mnt/md0/miranda/openwrt/tmp/cca1aXTG.ltrans4.ltrans.o
                                  0x4 (size before relaxing)
 *fill*         0x004427bf        0x1 
 .rodata.cp_main.str1.4
                0x004427c0       0x14 /mnt/md0/miranda/openwrt/tmp/cca1aXTG.ltrans4.ltrans.o
 .rodata.cut_main.str1.4
                0x004427d4       0xab /mnt/md0/miranda/openwrt/tmp/cca1aXTG.ltrans4.ltrans.o
                                 0xb0 (size before relaxing)
 *fill*         0x0044287f        0x1 
 .rodata.date_main.str1.4
                0x00442880       0x63 /mnt/md0/miranda/openwrt/tmp/cca1aXTG.ltrans4.ltrans.o
                                 0x6c (size before relaxing)
 *fill*         0x004428e3        0x1 
 .rodata.write_and_stats.str1.4
                0x004428e4       0x13 /mnt/md0/miranda/openwrt/tmp/cca1aXTG.ltrans4.ltrans.o
                                 0x14 (size before relaxing)
 *fill*         0x004428f7        0x1 
 .rodata.dd_main.str1.4
                0x004428f8       0x33 /mnt/md0/miranda/openwrt/tmp/cca1aXTG.ltrans4.ltrans.o
                                 0x34 (size before relaxing)
 *fill*         0x0044292b        0x1 
 .rodata.print.str1.4
                0x0044292c        0x7 /mnt/md0/miranda/openwrt/tmp/cca1aXTG.ltrans4.ltrans.o
                                  0x8 (size before relaxing)
 *fill*         0x00442933        0x1 
 .rodata.df_main.str1.4
                0x00442934       0xce /mnt/md0/miranda/openwrt/tmp/cca1aXTG.ltrans4.ltrans.o
                                 0xd0 (size before relaxing)
 *fill*         0x00442a02        0x2 
 .rodata.dirname_main.str1.4
                0x00442a04        0x3 /mnt/md0/miranda/openwrt/tmp/cca1aXTG.ltrans4.ltrans.o
                                  0x4 (size before relaxing)
 .rodata.du_main.str1.4
                0x00442a07        0x8 /mnt/md0/miranda/openwrt/tmp/cca1aXTG.ltrans4.ltrans.o
 .rodata.echo_main.str1.4
                0x00442a07        0xc /mnt/md0/miranda/openwrt/tmp/cca1aXTG.ltrans4.ltrans.o
 *fill*         0x00442a07        0x1 
 .rodata.env_main.str1.4
                0x00442a08       0x15 /mnt/md0/miranda/openwrt/tmp/cca1aXTG.ltrans4.ltrans.o
                                 0x18 (size before relaxing)
 *fill*         0x00442a1d        0x3 
 .rodata.arithmetic_common.str1.4
                0x00442a20       0x29 /mnt/md0/miranda/openwrt/tmp/cca1aXTG.ltrans4.ltrans.o
                                 0x2c (size before relaxing)
 *fill*         0x00442a49        0x3 
 .rodata.docolon.str1.4
                0x00442a4c       0x6d /mnt/md0/miranda/openwrt/tmp/cca1aXTG.ltrans4.ltrans.o
                                 0x70 (size before relaxing)
 *fill*         0x00442ab9        0x3 
 .rodata.eval6.str1.4
                0x00442abc        0xd /mnt/md0/miranda/openwrt/tmp/cca1aXTG.ltrans4.ltrans.o
                                 0x18 (size before relaxing)
 .rodata.eval5.str1.4
                0x00442ac9        0x4 /mnt/md0/miranda/openwrt/tmp/cca1aXTG.ltrans4.ltrans.o
 *fill*         0x00442ac9        0x3 
 .rodata.eval4.str1.4
                0x00442acc        0x2 /mnt/md0/miranda/openwrt/tmp/cca1aXTG.ltrans4.ltrans.o
                                  0x8 (size before relaxing)
 *fill*         0x00442ace        0x2 
 .rodata.eval3.str1.4
                0x00442ad0        0x2 /mnt/md0/miranda/openwrt/tmp/cca1aXTG.ltrans4.ltrans.o
                                  0x4 (size before relaxing)
 *fill*         0x00442ad2        0x2 
 .rodata.eval2.str1.4
                0x00442ad4        0xf /mnt/md0/miranda/openwrt/tmp/cca1aXTG.ltrans4.ltrans.o
                                 0x1c (size before relaxing)
 .rodata.eval1.str1.4
                0x00442ae3        0x4 /mnt/md0/miranda/openwrt/tmp/cca1aXTG.ltrans4.ltrans.o
 .rodata.eval.str1.4
                0x00442ae3        0x4 /mnt/md0/miranda/openwrt/tmp/cca1aXTG.ltrans4.ltrans.o
 *fill*         0x00442ae3        0x1 
 .rodata.expr_main.str1.4
                0x00442ae4       0x1a /mnt/md0/miranda/openwrt/tmp/cca1aXTG.ltrans4.ltrans.o
                                 0x1c (size before relaxing)
 *fill*         0x00442afe        0x2 
 .rodata.cwbkMG_suffixes
                0x00442b00       0x80 /mnt/md0/miranda/openwrt/tmp/cca1aXTG.ltrans4.ltrans.o
 .rodata.str1.4
                0x00442b80        0x5 /mnt/md0/miranda/openwrt/tmp/cca1aXTG.ltrans4.ltrans.o
                                  0x8 (size before relaxing)
 *fill*         0x00442b85        0x3 
 .rodata.args.0
                0x00442b88        0xc /mnt/md0/miranda/openwrt/tmp/cca1aXTG.ltrans4.ltrans.o
 .rodata.print_common.str1.4
                0x00442b94        0x5 /mnt/md0/miranda/openwrt/tmp/cca1aXTG.ltrans5.ltrans.o
                                 0x10 (size before relaxing)
 .rodata.yes_main.str1.4
                0x00442b94        0x5 /mnt/md0/miranda/openwrt/tmp/cca1aXTG.ltrans5.ltrans.o
                                  0x4 (size before relaxing)
 .rodata.head_main.str1.4
                0x00442b94       0x26 /mnt/md0/miranda/openwrt/tmp/cca1aXTG.ltrans5.ltrans.o
                                 0x2c (size before relaxing)
 *fill*         0x00442bba        0x2 
 .rodata.id_main.str1.4
                0x00442bbc       0x2b /mnt/md0/miranda/openwrt/tmp/cca1aXTG.ltrans5.ltrans.o
                                 0x34 (size before relaxing)
 *fill*         0x00442be7        0x1 
 .rodata.syntax_error.str1.4
                0x00442be8        0xa /mnt/md0/miranda/openwrt/tmp/cca1aXTG.ltrans5.ltrans.o
                                  0xc (size before relaxing)
 *fill*         0x00442bf2        0x2 
 .rodata.ln_main.str1.4
                0x00442bf4       0x26 /mnt/md0/miranda/openwrt/tmp/cca1aXTG.ltrans5.ltrans.o
                                 0x48 (size before relaxing)
 *fill*         0x00442c1a        0x2 
 .rodata.display_single.str1.4
                0x00442c1c       0xa1 /mnt/md0/miranda/openwrt/tmp/cca1aXTG.ltrans5.ltrans.o
                                 0xac (size before relaxing)
 *fill*         0x00442cbd        0x3 
 .rodata.display_files.str1.4
                0x00442cc0        0x4 /mnt/md0/miranda/openwrt/tmp/cca1aXTG.ltrans5.ltrans.o
                                  0x8 (size before relaxing)
 .rodata.scan_and_display_dirs_recur.str1.4
                0x00442cc4        0x5 /mnt/md0/miranda/openwrt/tmp/cca1aXTG.ltrans5.ltrans.o
                                 0x18 (size before relaxing)
 *fill*         0x00442cc9        0x3 
 .rodata.ls_main.str1.4
                0x00442ccc        0xa /mnt/md0/miranda/openwrt/tmp/cca1aXTG.ltrans5.ltrans.o
                                 0x18 (size before relaxing)
 .rodata.hash_file.str1.4
                0x00442cd6       0x10 /mnt/md0/miranda/openwrt/tmp/cca1aXTG.ltrans5.ltrans.o
 *fill*         0x00442cd6        0x2 
 .rodata.md5_sha1_sum_main.str1.4
                0x00442cd8       0x6c /mnt/md0/miranda/openwrt/tmp/cca1aXTG.ltrans5.ltrans.o
                                 0x7c (size before relaxing)
 .rodata.mkdir_main.str1.4
                0x00442d44        0x5 /mnt/md0/miranda/openwrt/tmp/cca1aXTG.ltrans5.ltrans.o
                                 0x1c (size before relaxing)
 *fill*         0x00442d49        0x3 
 .rodata.mktemp_main.str1.4
                0x00442d4c       0x1b /mnt/md0/miranda/openwrt/tmp/cca1aXTG.ltrans5.ltrans.o
                                 0x1c (size before relaxing)
 *fill*         0x00442d67        0x1 
 .rodata.rm_main.str1.4
                0x00442d68       0x19 /mnt/md0/miranda/openwrt/tmp/cca1aXTG.ltrans5.ltrans.o
                                 0x1c (size before relaxing)
 *fill*         0x00442d81        0x3 
 .rodata.nice_main.str1.4
                0x00442d84       0x38 /mnt/md0/miranda/openwrt/tmp/cca1aXTG.ltrans5.ltrans.o
                                 0x3c (size before relaxing)
 .rodata.multiconvert.str1.4
                0x00442dbc       0x14 /mnt/md0/miranda/openwrt/tmp/cca1aXTG.ltrans5.ltrans.o
 .rodata.print_direc.str1.4
                0x00442dbc        0x3 /mnt/md0/miranda/openwrt/tmp/cca1aXTG.ltrans5.ltrans.o
                                  0x4 (size before relaxing)
 *fill*         0x00442dbf        0x1 
 .rodata.printf_main.str1.4
                0x00442dc0       0x3f /mnt/md0/miranda/openwrt/tmp/cca1aXTG.ltrans5.ltrans.o
                                 0x40 (size before relaxing)
 .rodata.readlink_main.str1.4
                0x00442dff        0x4 /mnt/md0/miranda/openwrt/tmp/cca1aXTG.ltrans5.ltrans.o
 *fill*         0x00442dff        0x1 
 .rodata.rmdir_main.str1.4
                0x00442e00        0x3 /mnt/md0/miranda/openwrt/tmp/cca1aXTG.ltrans5.ltrans.o
                                  0xc (size before relaxing)
 *fill*         0x00442e03        0x1 
 .rodata.seq_main.str1.4
                0x00442e04       0x11 /mnt/md0/miranda/openwrt/tmp/cca1aXTG.ltrans5.ltrans.o
                                 0x18 (size before relaxing)
 *fill*         0x00442e15        0x3 
 .rodata.sleep_main.str1.4
                0x00442e18        0x4 /mnt/md0/miranda/openwrt/tmp/cca1aXTG.ltrans5.ltrans.o
 .rodata.compare_keys.str1.4
                0x00442e1c       0x12 /mnt/md0/miranda/openwrt/tmp/cca1aXTG.ltrans5.ltrans.o
                                 0x14 (size before relaxing)
 .rodata.sort_main.str1.4
                0x00442e2e        0x8 /mnt/md0/miranda/openwrt/tmp/cca1aXTG.ltrans5.ltrans.o
 *fill*         0x00442e2e        0x2 
 .rodata.tail_main.str1.4
                0x00442e30       0x6f /mnt/md0/miranda/openwrt/tmp/cca1aXTG.ltrans5.ltrans.o
                                 0x7c (size before relaxing)
 *fill*         0x00442e9f        0x1 
 .rodata.tee_main.str1.4
                0x00442ea0        0x3 /mnt/md0/miranda/openwrt/tmp/cca1aXTG.ltrans5.ltrans.o
                                  0x4 (size before relaxing)
 .rodata.syntax.str1.4
                0x00442ea3        0x8 /mnt/md0/miranda/openwrt/tmp/cca1aXTG.ltrans5.ltrans.o
 *fill*         0x00442ea3        0x1 
 .rodata.getn.str1.4
                0x00442ea4       0x1b /mnt/md0/miranda/openwrt/tmp/cca1aXTG.ltrans5.ltrans.o
                                 0x1c (size before relaxing)
 *fill*         0x00442ebf        0x1 
 .rodata.binop.str1.4
                0x00442ec0       0x12 /mnt/md0/miranda/openwrt/tmp/cca1aXTG.ltrans5.ltrans.o
                                 0x14 (size before relaxing)
 *fill*         0x00442ed2        0x2 
 .rodata.nexpr.str1.4
                0x00442ed4       0x22 /mnt/md0/miranda/openwrt/tmp/cca1aXTG.ltrans5.ltrans.o
                                 0x24 (size before relaxing)
 *fill*         0x00442ef6        0x2 
 .rodata.test_main.str1.4
                0x00442ef8       0x2c /mnt/md0/miranda/openwrt/tmp/cca1aXTG.ltrans5.ltrans.o
                                 0x30 (size before relaxing)
 .rodata.tr_main.str1.4
                0x00442f24       0x18 /mnt/md0/miranda/openwrt/tmp/cca1aXTG.ltrans5.ltrans.o
 .rodata.uname_main.str1.4
                0x00442f3c       0x16 /mnt/md0/miranda/openwrt/tmp/cca1aXTG.ltrans5.ltrans.o
                                 0x24 (size before relaxing)
 *fill*         0x00442f52        0x2 
 .rodata.uniq_main.str1.4
                0x00442f54       0x16 /mnt/md0/miranda/openwrt/tmp/cca1aXTG.ltrans5.ltrans.o
                                 0x18 (size before relaxing)
 *fill*         0x00442f6a        0x2 
 .rodata.wc_main.str1.4
                0x00442f6c        0xe /mnt/md0/miranda/openwrt/tmp/cca1aXTG.ltrans5.ltrans.o
                                 0x20 (size before relaxing)
 *fill*         0x00442f7a        0x2 
 .rodata.getopt_mk_fifo_nod.str1.4
                0x00442f7c        0x3 /mnt/md0/miranda/openwrt/tmp/cca1aXTG.ltrans5.ltrans.o
                                  0x4 (size before relaxing)
 *fill*         0x00442f7f        0x1 
 .rodata.fmt_num.str1.4
                0x00442f80       0x11 /mnt/md0/miranda/openwrt/tmp/cca1aXTG.ltrans5.ltrans.o
                                 0x1c (size before relaxing)
 *fill*         0x00442f91        0x3 
 .rodata.check.str1.4
                0x00442f94       0x31 /mnt/md0/miranda/openwrt/tmp/cca1aXTG.ltrans5.ltrans.o
                                 0x34 (size before relaxing)
 *fill*         0x00442fc5        0x3 
 .rodata.start_stop_daemon_main.str1.4
                0x00442fc8       0xe3 /mnt/md0/miranda/openwrt/tmp/cca1aXTG.ltrans5.ltrans.o
                                0x110 (size before relaxing)
 .rodata.which_main.str1.4
                0x004430ab        0x8 /mnt/md0/miranda/openwrt/tmp/cca1aXTG.ltrans5.ltrans.o
 *fill*         0x004430ab        0x1 
 .rodata.handle_special.str1.4
                0x004430ac       0x19 /mnt/md0/miranda/openwrt/tmp/cca1aXTG.ltrans5.ltrans.o
                                 0x1c (size before relaxing)
 *fill*         0x004430c5        0x3 
 .rodata.do_mktime.str1.4
                0x004430c8       0x15 /mnt/md0/miranda/openwrt/tmp/cca1aXTG.ltrans5.ltrans.o
                                 0x18 (size before relaxing)
 .rodata.cp_mv_stat2.str1.4
                0x004430dd       0x10 /mnt/md0/miranda/openwrt/tmp/cca1aXTG.ltrans5.ltrans.o
 *fill*         0x004430dd        0x3 
 .rodata.mv_main.str1.4
                0x004430e0       0x46 /mnt/md0/miranda/openwrt/tmp/cca1aXTG.ltrans5.ltrans.o
                                 0x48 (size before relaxing)
 *fill*         0x00443126        0x2 
 .rodata.parse_expr.str1.4
                0x00443128        0xf /mnt/md0/miranda/openwrt/tmp/cca1aXTG.ltrans5.ltrans.o
                                 0x10 (size before relaxing)
 *fill*         0x00443137        0x1 
 .rodata.chain_group.str1.4
                0x00443138       0x31 /mnt/md0/miranda/openwrt/tmp/cca1aXTG.ltrans5.ltrans.o
                                 0x34 (size before relaxing)
 *fill*         0x00443169        0x3 
 .rodata.parse_program.str1.4
                0x0044316c       0x13 /mnt/md0/miranda/openwrt/tmp/cca1aXTG.ltrans5.ltrans.o
                                 0x14 (size before relaxing)
 .rodata.awk_getline.str1.4
                0x0044317f        0x4 /mnt/md0/miranda/openwrt/tmp/cca1aXTG.ltrans5.ltrans.o
 *fill*         0x0044317f        0x1 
 .rodata.evaluate.lto_priv.0.str1.4
                0x00443180       0x1b /mnt/md0/miranda/openwrt/tmp/cca1aXTG.ltrans5.ltrans.o
                                 0x30 (size before relaxing)
 *fill*         0x0044319b        0x1 
 .rodata.do_match.str1.4
                0x0044319c        0xf /mnt/md0/miranda/openwrt/tmp/cca1aXTG.ltrans5.ltrans.o
                                 0x10 (size before relaxing)
 *fill*         0x004431ab        0x1 
 .rodata.awk_printf.str1.4
                0x004431ac       0x1e /mnt/md0/miranda/openwrt/tmp/cca1aXTG.ltrans5.ltrans.o
                                 0x20 (size before relaxing)
 *fill*         0x004431ca        0x2 
 .rodata.exec_builtin.str1.4
                0x004431cc       0x18 /mnt/md0/miranda/openwrt/tmp/cca1aXTG.ltrans5.ltrans.o
 .rodata.awk_main.str1.4
                0x004431e4       0x64 /mnt/md0/miranda/openwrt/tmp/cca1aXTG.ltrans5.ltrans.o
 .rodata.tokeninfo
                0x00443248      0x190 /mnt/md0/miranda/openwrt/tmp/cca1aXTG.ltrans5.ltrans.o
 .rodata.utsname_offset
                0x004433d8       0x10 /mnt/md0/miranda/openwrt/tmp/cca1aXTG.ltrans5.ltrans.o
 .rodata.no_op.0
                0x004433e8        0x4 /mnt/md0/miranda/openwrt/tmp/cca1aXTG.ltrans5.ltrans.o
 .rodata.modes_cubp
                0x004433ec        0xc /mnt/md0/miranda/openwrt/tmp/cca1aXTG.ltrans5.ltrans.o
 .rodata.init256
                0x004433f8       0x28 /mnt/md0/miranda/openwrt/tmp/cca1aXTG.ltrans5.ltrans.o
 .rodata.cmp_main.str1.4
                0x00443420        0x4 /mnt/md0/miranda/openwrt/tmp/cca1aXTG.ltrans6.ltrans.o
 .rodata.sed_xfopen_w.str1.4
                0x00443420        0x4 /mnt/md0/miranda/openwrt/tmp/cca1aXTG.ltrans6.ltrans.o
 .rodata.copy_parsing_escapes.str1.4
                0x00443420        0x7 /mnt/md0/miranda/openwrt/tmp/cca1aXTG.ltrans6.ltrans.o
                                  0x8 (size before relaxing)
 *fill*         0x00443427        0x1 
 .rodata.index_of_next_unescaped_regexp_delim.str1.4
                0x00443428        0xf /mnt/md0/miranda/openwrt/tmp/cca1aXTG.ltrans6.ltrans.o
                                 0x10 (size before relaxing)
 *fill*         0x00443437        0x1 
 .rodata.parse_regex_delim.str1.4
                0x00443438       0x26 /mnt/md0/miranda/openwrt/tmp/cca1aXTG.ltrans6.ltrans.o
                                 0x28 (size before relaxing)
 *fill*         0x0044345e        0x2 
 .rodata.get_address.lto_priv.0.str1.4
                0x00443460       0x13 /mnt/md0/miranda/openwrt/tmp/cca1aXTG.ltrans6.ltrans.o
                                 0x14 (size before relaxing)
 *fill*         0x00443473        0x1 
 .rodata.skip_thing.str1.4
                0x00443474       0x21 /mnt/md0/miranda/openwrt/tmp/cca1aXTG.ltrans6.ltrans.o
                                 0x24 (size before relaxing)
 *fill*         0x00443495        0x3 
 .rodata.parse_file_cmd.str1.4
                0x00443498        0xf /mnt/md0/miranda/openwrt/tmp/cca1aXTG.ltrans6.ltrans.o
                                 0x10 (size before relaxing)
 *fill*         0x004434a7        0x1 
 .rodata.add_cmd.str1.4
                0x004434a8       0x97 /mnt/md0/miranda/openwrt/tmp/cca1aXTG.ltrans6.ltrans.o
                                 0x98 (size before relaxing)
 .rodata.puts_maybe_newline.str1.4
                0x0044353f        0xc /mnt/md0/miranda/openwrt/tmp/cca1aXTG.ltrans6.ltrans.o
 .rodata.get_next_line.str1.4
                0x0044353f        0x4 /mnt/md0/miranda/openwrt/tmp/cca1aXTG.ltrans6.ltrans.o
 *fill*         0x0044353f        0x1 
 .rodata.find_pair.str1.4
                0x00443540        0x7 /mnt/md0/miranda/openwrt/tmp/cca1aXTG.ltrans6.ltrans.o
                                  0x8 (size before relaxing)
 *fill*         0x00443547        0x1 
 .rodata.process_files.str1.4
                0x00443548       0x32 /mnt/md0/miranda/openwrt/tmp/cca1aXTG.ltrans6.ltrans.o
                                 0x40 (size before relaxing)
 *fill*         0x0044357a        0x2 
 .rodata.sed_main.str1.4
                0x0044357c       0x54 /mnt/md0/miranda/openwrt/tmp/cca1aXTG.ltrans6.ltrans.o
                                 0x60 (size before relaxing)
 .rodata.place_cursor.str1.4
                0x004435d0        0xc /mnt/md0/miranda/openwrt/tmp/cca1aXTG.ltrans6.ltrans.o
 .rodata.go_bottom_and_clear_to_eol.str1.4
                0x004435d0        0x4 /mnt/md0/miranda/openwrt/tmp/cca1aXTG.ltrans6.ltrans.o
 .rodata.readit.str1.4
                0x004435d0       0x16 /mnt/md0/miranda/openwrt/tmp/cca1aXTG.ltrans6.ltrans.o
                                 0x18 (size before relaxing)
 *fill*         0x004435e6        0x2 
 .rodata.Hit_Return.str1.4
                0x004435e8       0x21 /mnt/md0/miranda/openwrt/tmp/cca1aXTG.ltrans6.ltrans.o
                                 0x28 (size before relaxing)
 *fill*         0x00443609        0x3 
 .rodata.show_status_line.str1.4
                0x0044360c       0x35 /mnt/md0/miranda/openwrt/tmp/cca1aXTG.ltrans6.ltrans.o
                                 0x38 (size before relaxing)
 .rodata.redraw.str1.4
                0x00443641        0x8 /mnt/md0/miranda/openwrt/tmp/cca1aXTG.ltrans6.ltrans.o
 *fill*         0x00443641        0x3 
 .rodata.indicate_error.str1.4
                0x00443644        0x2 /mnt/md0/miranda/openwrt/tmp/cca1aXTG.ltrans6.ltrans.o
                                  0x4 (size before relaxing)
 *fill*         0x00443646        0x2 
 .rodata.char_insert.str1.4
                0x00443648        0x4 /mnt/md0/miranda/openwrt/tmp/cca1aXTG.ltrans6.ltrans.o
 .rodata.not_implemented.str1.4
                0x0044364c       0x20 /mnt/md0/miranda/openwrt/tmp/cca1aXTG.ltrans6.ltrans.o
 .rodata.file_insert.str1.4
                0x0044366c        0x8 /mnt/md0/miranda/openwrt/tmp/cca1aXTG.ltrans6.ltrans.o
                                 0x34 (size before relaxing)
 .rodata.file_write.str1.4
                0x00443674       0x14 /mnt/md0/miranda/openwrt/tmp/cca1aXTG.ltrans6.ltrans.o
 .rodata.func_print0.str1.4
                0x00443688        0x8 /mnt/md0/miranda/openwrt/tmp/cca1aXTG.ltrans6.ltrans.o
 .rodata.print_line.str1.4
                0x00443688        0x5 /mnt/md0/miranda/openwrt/tmp/cca1aXTG.ltrans6.ltrans.o
                                  0xc (size before relaxing)
 *fill*         0x0044368d        0x3 
 .rodata.colon.str1.4
                0x00443690      0x39b /mnt/md0/miranda/openwrt/tmp/cca1aXTG.ltrans6.ltrans.o
                                0x3c0 (size before relaxing)
 *fill*         0x00443a2b        0x1 
 .rodata.do_cmd.str1.4
                0x00443a2c       0x6b /mnt/md0/miranda/openwrt/tmp/cca1aXTG.ltrans6.ltrans.o
                                 0x70 (size before relaxing)
 *fill*         0x00443a97        0x1 
 .rodata.find_range.str1.4
                0x00443a98       0x47 /mnt/md0/miranda/openwrt/tmp/cca1aXTG.ltrans6.ltrans.o
                                 0x4c (size before relaxing)
 *fill*         0x00443adf        0x1 
 .rodata.edit_file.str1.4
                0x00443ae0        0xf /mnt/md0/miranda/openwrt/tmp/cca1aXTG.ltrans6.ltrans.o
                                 0x10 (size before relaxing)
 *fill*         0x00443aef        0x1 
 .rodata.vi_main.str1.4
                0x00443af0       0x49 /mnt/md0/miranda/openwrt/tmp/cca1aXTG.ltrans6.ltrans.o
                                 0x54 (size before relaxing)
 *fill*         0x00443b39        0x3 
 .rodata.parse_params.str1.4
                0x00443b3c       0x31 /mnt/md0/miranda/openwrt/tmp/cca1aXTG.ltrans6.ltrans.o
                                 0x4c (size before relaxing)
 *fill*         0x00443b6d        0x3 
 .rodata.find_main.str1.4
                0x00443b70        0x9 /mnt/md0/miranda/openwrt/tmp/cca1aXTG.ltrans6.ltrans.o
                                 0x10 (size before relaxing)
 *fill*         0x00443b79        0x3 
 .rodata.grep_file.str1.4
                0x00443b7c        0x4 /mnt/md0/miranda/openwrt/tmp/cca1aXTG.ltrans6.ltrans.o
 .rodata.grep_main.str1.4
                0x00443b80       0x11 /mnt/md0/miranda/openwrt/tmp/cca1aXTG.ltrans6.ltrans.o
                                 0x18 (size before relaxing)
 *fill*         0x00443b91        0x3 
 .rodata.process_stdin.lto_priv.0.str1.4
                0x00443b94       0x23 /mnt/md0/miranda/openwrt/tmp/cca1aXTG.ltrans6.ltrans.o
                                 0x24 (size before relaxing)
 *fill*         0x00443bb7        0x1 
 .rodata.find_suffixes.0
                0x00443bb8       0x30 /mnt/md0/miranda/openwrt/tmp/cca1aXTG.ltrans6.ltrans.o
 .rodata.xgroup2gid.str1.4
                0x00443be8       0x11 /mnt/md0/miranda/openwrt/tmp/cca1aXTG.ltrans7.ltrans.o
                                 0x14 (size before relaxing)
 *fill*         0x00443bf9        0x3 
 .rodata.quote_special_chars.str1.4
                0x00443bfc       0x14 /mnt/md0/miranda/openwrt/tmp/cca1aXTG.ltrans7.ltrans.o
 .rodata.next.str1.4
                0x00443c10        0x6 /mnt/md0/miranda/openwrt/tmp/cca1aXTG.ltrans7.ltrans.o
                                  0xc (size before relaxing)
 .rodata.get_homedir_or_NULL.str1.4
                0x00443c16        0x8 /mnt/md0/miranda/openwrt/tmp/cca1aXTG.ltrans7.ltrans.o
 *fill*         0x00443c16        0x2 
 .rodata.halt_main.str1.4
                0x00443c18        0x8 /mnt/md0/miranda/openwrt/tmp/cca1aXTG.ltrans7.ltrans.o
 .rodata.ask_and_unlink.str1.4
                0x00443c20       0x2a /mnt/md0/miranda/openwrt/tmp/cca1aXTG.ltrans7.ltrans.o
                                 0x2c (size before relaxing)
 *fill*         0x00443c4a        0x2 
 .rodata.xgetpwnam.str1.4
                0x00443c4c       0x10 /mnt/md0/miranda/openwrt/tmp/cca1aXTG.ltrans7.ltrans.o
 .rodata.xgetpwuid.str1.4
                0x00443c5c        0xf /mnt/md0/miranda/openwrt/tmp/cca1aXTG.ltrans7.ltrans.o
                                 0x10 (size before relaxing)
 *fill*         0x00443c6b        0x1 
 .rodata.change_identity.str1.4
                0x00443c6c       0x11 /mnt/md0/miranda/openwrt/tmp/cca1aXTG.ltrans7.ltrans.o
                                 0x14 (size before relaxing)
 *fill*         0x00443c7d        0x3 
 .rodata.get_passwd.lto_priv.0.str1.4
                0x00443c80        0x3 /mnt/md0/miranda/openwrt/tmp/cca1aXTG.ltrans7.ltrans.o
                                  0x4 (size before relaxing)
 *fill*         0x00443c83        0x1 
 .rodata.rewrite.lto_priv.0.str1.4
                0x00443c84       0xb3 /mnt/md0/miranda/openwrt/tmp/cca1aXTG.ltrans7.ltrans.o
                                 0xb4 (size before relaxing)
 .rodata.find_mount_point.str1.4
                0x00443d37       0x10 /mnt/md0/miranda/openwrt/tmp/cca1aXTG.ltrans7.ltrans.o
 .rodata.get_shell_name.str1.4
                0x00443d37        0x8 /mnt/md0/miranda/openwrt/tmp/cca1aXTG.ltrans7.ltrans.o
 *fill*         0x00443d37        0x1 
 .rodata.make_human_readable_str.str1.4
                0x00443d38       0x14 /mnt/md0/miranda/openwrt/tmp/cca1aXTG.ltrans7.ltrans.o
                                 0x20 (size before relaxing)
 .rodata.INET_resolve.str1.4
                0x00443d4c        0x8 /mnt/md0/miranda/openwrt/tmp/cca1aXTG.ltrans7.ltrans.o
 .rodata.INET6_resolve.str1.4
                0x00443d4c       0x14 /mnt/md0/miranda/openwrt/tmp/cca1aXTG.ltrans7.ltrans.o
 .rodata.add_to_ino_dev_hashtable.str1.4
                0x00443d60        0x4 /mnt/md0/miranda/openwrt/tmp/cca1aXTG.ltrans7.ltrans.o
 .rodata.bb_make_directory.str1.4
                0x00443d60       0x34 /mnt/md0/miranda/openwrt/tmp/cca1aXTG.ltrans7.ltrans.o
 .rodata.read_cmdline.str1.4
                0x00443d94       0x21 /mnt/md0/miranda/openwrt/tmp/cca1aXTG.ltrans7.ltrans.o
                                 0x24 (size before relaxing)
 *fill*         0x00443db5        0x3 
 .rodata.pw_encrypt.str1.4
                0x00443db8        0x9 /mnt/md0/miranda/openwrt/tmp/cca1aXTG.ltrans7.ltrans.o
                                  0xc (size before relaxing)
 .rodata.xread.str1.4
                0x00443dc1        0xc /mnt/md0/miranda/openwrt/tmp/cca1aXTG.ltrans7.ltrans.o
 *fill*         0x00443dc1        0x3 
 .rodata.remove_file.str1.4
                0x00443dc4       0x52 /mnt/md0/miranda/openwrt/tmp/cca1aXTG.ltrans7.ltrans.o
                                 0x8c (size before relaxing)
 *fill*         0x00443e16        0x2 
 .rodata.safe_gethostname.str1.4
                0x00443e18        0x2 /mnt/md0/miranda/openwrt/tmp/cca1aXTG.ltrans7.ltrans.o
                                  0x4 (size before relaxing)
 .rodata.safe_poll.str1.4
                0x00443e1a        0x8 /mnt/md0/miranda/openwrt/tmp/cca1aXTG.ltrans7.ltrans.o
 .rodata.setup_environment.str1.4
                0x00443e1a       0x2c /mnt/md0/miranda/openwrt/tmp/cca1aXTG.ltrans7.ltrans.o
 *fill*         0x00443e1a        0x2 
 .rodata.bb_dump_add.str1.4
                0x00443e1c       0x10 /mnt/md0/miranda/openwrt/tmp/cca1aXTG.ltrans7.ltrans.o
 .rodata.config_read.str1.4
                0x00443e2c       0x28 /mnt/md0/miranda/openwrt/tmp/cca1aXTG.ltrans7.ltrans.o
 .rodata.get_signum.str1.4
                0x00443e54        0x4 /mnt/md0/miranda/openwrt/tmp/cca1aXTG.ltrans7.ltrans.o
 .rodata.xargs_main.str1.4
                0x00443e58       0xbd /mnt/md0/miranda/openwrt/tmp/cca1aXTG.ltrans7.ltrans.o
                                 0xd0 (size before relaxing)
 .rodata.xfdopen_helper.lto_priv.0.str1.4
                0x00443f15        0x4 /mnt/md0/miranda/openwrt/tmp/cca1aXTG.ltrans7.ltrans.o
 *fill*         0x00443f15        0x3 
 .rodata.xconnect.str1.4
                0x00443f18       0x28 /mnt/md0/miranda/openwrt/tmp/cca1aXTG.ltrans7.ltrans.o
 .rodata.str2sockaddr.lto_priv.0.str1.4
                0x00443f40       0x11 /mnt/md0/miranda/openwrt/tmp/cca1aXTG.ltrans7.ltrans.o
                                 0x24 (size before relaxing)
 *fill*         0x00443f51        0x3 
 .rodata.sockaddr2str.lto_priv.0.str1.4
                0x00443f54        0x8 /mnt/md0/miranda/openwrt/tmp/cca1aXTG.ltrans7.ltrans.o
                                 0x10 (size before relaxing)
 .rodata.INET_rresolve.str1.4
                0x00443f5c        0x4 /mnt/md0/miranda/openwrt/tmp/cca1aXTG.ltrans7.ltrans.o
 .rodata.procps_scan.str1.4
                0x00443f5c       0x10 /mnt/md0/miranda/openwrt/tmp/cca1aXTG.ltrans7.ltrans.o
                                 0x28 (size before relaxing)
 .rodata.update_passwd.str1.4
                0x00443f6c       0x68 /mnt/md0/miranda/openwrt/tmp/cca1aXTG.ltrans7.ltrans.o
                                 0x70 (size before relaxing)
 .rodata.xmalloc_readlink_or_warn.str1.4
                0x00443fd4       0x29 /mnt/md0/miranda/openwrt/tmp/cca1aXTG.ltrans7.ltrans.o
                                 0x2c (size before relaxing)
 *fill*         0x00443ffd        0x3 
 .rodata.copy_file.str1.4
                0x00444000      0x116 /mnt/md0/miranda/openwrt/tmp/cca1aXTG.ltrans7.ltrans.o
                                0x158 (size before relaxing)
 .rodata.complete_cmd_dir_file.str1.4
                0x00444116        0x4 /mnt/md0/miranda/openwrt/tmp/cca1aXTG.ltrans7.ltrans.o
 *fill*         0x00444116        0x2 
 .rodata.xregcomp.str1.4
                0x00444118       0x13 /mnt/md0/miranda/openwrt/tmp/cca1aXTG.ltrans7.ltrans.o
                                 0x14 (size before relaxing)
 *fill*         0x0044412b        0x1 
 .rodata.parse_chown_usergroup_or_die.str1.4
                0x0044412c       0x16 /mnt/md0/miranda/openwrt/tmp/cca1aXTG.ltrans7.ltrans.o
                                 0x18 (size before relaxing)
 *fill*         0x00444142        0x2 
 .rodata.setup_transformer_on_fd.constprop.0.str1.4
                0x00444144        0xe /mnt/md0/miranda/openwrt/tmp/cca1aXTG.ltrans7.ltrans.o
                                 0x10 (size before relaxing)
 *fill*         0x00444152        0x2 
 .rodata.xrealloc_getcwd_or_warn.constprop.0.str1.4
                0x00444154        0x7 /mnt/md0/miranda/openwrt/tmp/cca1aXTG.ltrans7.ltrans.o
                                  0x8 (size before relaxing)
 .rodata.ash_msg_and_raise.constprop.0.str1.4
                0x0044415b        0x8 /mnt/md0/miranda/openwrt/tmp/cca1aXTG.ltrans7.ltrans.o
 *fill*         0x0044415b        0x1 
 .rodata.legal_pathopt.constprop.0.str1.4
                0x0044415c        0x5 /mnt/md0/miranda/openwrt/tmp/cca1aXTG.ltrans7.ltrans.o
                                 0x10 (size before relaxing)
 *fill*         0x00444161        0x3 
 .rodata.smart_ulltoa5.constprop.0.str1.4
                0x00444164       0x21 /mnt/md0/miranda/openwrt/tmp/cca1aXTG.ltrans7.ltrans.o
                                 0x24 (size before relaxing)
 *fill*         0x00444185        0x3 
 .rodata.udhcp_option_idx.constprop.0.str1.4
                0x00444188       0x27 /mnt/md0/miranda/openwrt/tmp/cca1aXTG.ltrans7.ltrans.o
                                 0x28 (size before relaxing)
 *fill*         0x004441af        0x1 
 .rodata.attach_option.constprop.0.str1.4
                0x004441b0       0x1a /mnt/md0/miranda/openwrt/tmp/cca1aXTG.ltrans7.ltrans.o
                                 0x1c (size before relaxing)
 .rodata.udhcp_send_raw_packet.constprop.0.str1.4
                0x004441ca       0x28 /mnt/md0/miranda/openwrt/tmp/cca1aXTG.ltrans7.ltrans.o
 *fill*         0x004441ca        0x2 
 .rodata.ll_addr_n2a.constprop.0.str1.4
                0x004441cc        0x6 /mnt/md0/miranda/openwrt/tmp/cca1aXTG.ltrans7.ltrans.o
                                  0x8 (size before relaxing)
 .rodata.sendping_tail.constprop.0.str1.4
                0x004441d2        0xc /mnt/md0/miranda/openwrt/tmp/cca1aXTG.ltrans7.ltrans.o
 *fill*         0x004441d2        0x2 
 .rodata.if_readlist_proc.constprop.0.str1.4
                0x004441d4       0x22 /mnt/md0/miranda/openwrt/tmp/cca1aXTG.ltrans7.ltrans.o
                                 0x24 (size before relaxing)
 .rodata.log7.constprop.0.str1.4
                0x004441f6       0x24 /mnt/md0/miranda/openwrt/tmp/cca1aXTG.ltrans7.ltrans.o
 .rodata.xstrtoull_range_sfx.constprop.0.str1.4
                0x004441f6       0x3c /mnt/md0/miranda/openwrt/tmp/cca1aXTG.ltrans7.ltrans.o
 .rodata.dup2_or_raise.isra.0.str1.4
                0x004441f6        0x8 /mnt/md0/miranda/openwrt/tmp/cca1aXTG.ltrans7.ltrans.o
 *fill*         0x004441f6        0x2 
 .rodata.xmalloc_optname_optval.isra.0.str1.4
                0x004441f8       0x38 /mnt/md0/miranda/openwrt/tmp/cca1aXTG.ltrans7.ltrans.o
                                 0x48 (size before relaxing)
 .rodata.send_select.isra.0.str1.4
                0x00444230       0x26 /mnt/md0/miranda/openwrt/tmp/cca1aXTG.ltrans7.ltrans.o
                                 0x28 (size before relaxing)
 *fill*         0x00444256        0x2 
 .rodata.send_discover.isra.0.str1.4
                0x00444258       0x16 /mnt/md0/miranda/openwrt/tmp/cca1aXTG.ltrans7.ltrans.o
                                 0x18 (size before relaxing)
 .rodata.get_addr.isra.0.str1.4
                0x0044426e       0x74 /mnt/md0/miranda/openwrt/tmp/cca1aXTG.ltrans7.ltrans.o
 *fill*         0x0044426e        0x2 
 .rodata.display.lto_priv.0.str1.4
                0x00444270        0xd /mnt/md0/miranda/openwrt/tmp/cca1aXTG.ltrans7.ltrans.o
                                 0x14 (size before relaxing)
 *fill*         0x0044427d        0x3 
 .rodata.parse_and_put_prompt.lto_priv.0.str1.4
                0x00444280        0x9 /mnt/md0/miranda/openwrt/tmp/cca1aXTG.ltrans7.ltrans.o
                                 0x10 (size before relaxing)
 .rodata.put_cur_glyph_and_inc_cursor.lto_priv.0.str1.4
                0x00444289        0x4 /mnt/md0/miranda/openwrt/tmp/cca1aXTG.ltrans7.ltrans.o
 .rodata.ctrl_right.lto_priv.0.str1.4
                0x00444289       0x24 /mnt/md0/miranda/openwrt/tmp/cca1aXTG.ltrans7.ltrans.o
 *fill*         0x00444289        0x3 
 .rodata.input_backward.lto_priv.0.str1.4
                0x0044428c       0x16 /mnt/md0/miranda/openwrt/tmp/cca1aXTG.ltrans7.ltrans.o
                                 0x18 (size before relaxing)
 .rodata.input_delete.lto_priv.0.str1.4
                0x004442a2        0x4 /mnt/md0/miranda/openwrt/tmp/cca1aXTG.ltrans7.ltrans.o
 *fill*         0x004442a2        0x2 
 .rodata.draw_custom.lto_priv.0.str1.4
                0x004442a4        0x6 /mnt/md0/miranda/openwrt/tmp/cca1aXTG.ltrans7.ltrans.o
                                  0x8 (size before relaxing)
 *fill*         0x004442aa        0x2 
 .rodata.input_tab.lto_priv.0.str1.4
                0x004442ac        0x7 /mnt/md0/miranda/openwrt/tmp/cca1aXTG.ltrans7.ltrans.o
                                 0x10 (size before relaxing)
 *fill*         0x004442b3        0x1 
 .rodata.setsockopt_bindtodevice.str1.4
                0x004442b4       0x1b /mnt/md0/miranda/openwrt/tmp/cca1aXTG.ltrans7.ltrans.o
                                 0x1c (size before relaxing)
 *fill*         0x004442cf        0x1 
 .rodata.common_ping_main.isra.0.str1.4
                0x004442d0       0xde /mnt/md0/miranda/openwrt/tmp/cca1aXTG.ltrans7.ltrans.o
                                0x138 (size before relaxing)
 *fill*         0x004443ae        0x2 
 .rodata.udhcp_read_interface.constprop.0.str1.4
                0x004443b0        0xe /mnt/md0/miranda/openwrt/tmp/cca1aXTG.ltrans7.ltrans.o
                                 0x20 (size before relaxing)
 *fill*         0x004443be        0x2 
 .rodata.str1.4
                0x004443c0       0xf8 /mnt/md0/miranda/openwrt/tmp/cca1aXTG.ltrans7.ltrans.o
                                0x138 (size before relaxing)
 .rodata.CSWTCH.158
                0x004444b8       0x4c /mnt/md0/miranda/openwrt/tmp/cca1aXTG.ltrans7.ltrans.o
 .rodata.ss_fmt
                0x00444504        0xc /mnt/md0/miranda/openwrt/tmp/cca1aXTG.ltrans7.ltrans.o
 .rodata.rconsts.3
                0x00444510       0x10 /mnt/md0/miranda/openwrt/tmp/cca1aXTG.ltrans7.ltrans.o
 .rodata.C_array.5
                0x00444520      0x100 /mnt/md0/miranda/openwrt/tmp/cca1aXTG.ltrans7.ltrans.o
 .rodata.bb_argv_dash
                0x00444620        0x8 /mnt/md0/miranda/openwrt/tmp/cca1aXTG.ltrans7.ltrans.o
 .rodata.magic.0
                0x00444628        0xc /mnt/md0/miranda/openwrt/tmp/cca1aXTG.ltrans7.ltrans.o
 .rodata.signals.1
                0x00444634        0x4 /mnt/md0/miranda/openwrt/tmp/cca1aXTG.ltrans7.ltrans.o
 .rodata.ife_print_flags_mask.1
                0x00444638       0x1a /mnt/md0/miranda/openwrt/tmp/cca1aXTG.ltrans0.ltrans.o
 .rodata.arphrd_type.0
                0x00444652       0x26 /mnt/md0/miranda/openwrt/tmp/cca1aXTG.ltrans1.ltrans.o
 .rodata.flags_ipvx
                0x00444678        0x8 /mnt/md0/miranda/openwrt/tmp/cca1aXTG.ltrans1.ltrans.o
 .rodata.S_I_T.lto_priv.0
                0x00444680       0x1c /mnt/md0/miranda/openwrt/tmp/cca1aXTG.ltrans2.ltrans.o
                0x00444680                S_I_T.lto_priv.0
 .rodata.MAC_BCAST_ADDR
                0x0044469c        0x6 /mnt/md0/miranda/openwrt/tmp/cca1aXTG.ltrans2.ltrans.o
                0x0044469c                MAC_BCAST_ADDR
 .rodata.dhcp_optflags
                0x004446a2       0x4e /mnt/md0/miranda/openwrt/tmp/cca1aXTG.ltrans2.ltrans.o
 .rodata.limits_tbl
                0x004446f0       0x1e /mnt/md0/miranda/openwrt/tmp/cca1aXTG.ltrans3.ltrans.o
 .rodata.dist   0x0044470e       0x5e /mnt/md0/miranda/openwrt/tmp/cca1aXTG.ltrans4.ltrans.o
 .rodata.lit    0x0044476c       0x5e /mnt/md0/miranda/openwrt/tmp/cca1aXTG.ltrans4.ltrans.o
 .rodata.mask_bits
                0x004447ca       0x22 /mnt/md0/miranda/openwrt/tmp/cca1aXTG.ltrans4.ltrans.o
 .rodata.PRIMES
                0x004447ec        0xa /mnt/md0/miranda/openwrt/tmp/cca1aXTG.ltrans5.ltrans.o
 .rodata.ops_table
                0x004447f6       0x56 /mnt/md0/miranda/openwrt/tmp/cca1aXTG.ltrans5.ltrans.o
 .rodata.perm_mask.1
                0x0044484c        0xc /mnt/md0/miranda/openwrt/tmp/cca1aXTG.ltrans7.ltrans.o
 .rodata.who_mask.2
                0x00444858        0x8 /mnt/md0/miranda/openwrt/tmp/cca1aXTG.ltrans7.ltrans.o
 .rodata.qtypes
                0x00444860       0x50 /mnt/md0/miranda/openwrt/tmp/cca1aXTG.ltrans0.ltrans.o
 .rodata.families.1
                0x004448b0       0x11 /mnt/md0/miranda/openwrt/tmp/cca1aXTG.ltrans0.ltrans.o
 .rodata.ip_common_commands.2
                0x004448c1       0x16 /mnt/md0/miranda/openwrt/tmp/cca1aXTG.ltrans0.ltrans.o
 .rodata.keywords.1
                0x004448d7       0x21 /mnt/md0/miranda/openwrt/tmp/cca1aXTG.ltrans0.ltrans.o
 .rodata.ife_print_flags_strs.0
                0x004448f8       0x6a /mnt/md0/miranda/openwrt/tmp/cca1aXTG.ltrans0.ltrans.o
 .rodata.TRext  0x00444962        0xf /mnt/md0/miranda/openwrt/tmp/cca1aXTG.ltrans0.ltrans.o
 .rodata.no_yes.1
                0x00444971       0x17 /mnt/md0/miranda/openwrt/tmp/cca1aXTG.ltrans0.ltrans.o
 .rodata.bb_msg_invalid_arg_to
                0x00444988       0x1e /mnt/md0/miranda/openwrt/tmp/cca1aXTG.ltrans0.ltrans.o
                0x00444988                bb_msg_invalid_arg_to
 .rodata.keywords.2
                0x004449a6       0x7c /mnt/md0/miranda/openwrt/tmp/cca1aXTG.ltrans0.ltrans.o
 .rodata.state_names.0
                0x00444a22       0x30 /mnt/md0/miranda/openwrt/tmp/cca1aXTG.ltrans0.ltrans.o
 .rodata.posix_format
                0x00444a52       0x17 /mnt/md0/miranda/openwrt/tmp/cca1aXTG.ltrans0.ltrans.o
 .rodata.long_format
                0x00444a69      0x2cb /mnt/md0/miranda/openwrt/tmp/cca1aXTG.ltrans0.ltrans.o
 .rodata.default_format
                0x00444d34       0x17 /mnt/md0/miranda/openwrt/tmp/cca1aXTG.ltrans0.ltrans.o
 .rodata.bb_msg_standard_input
                0x00444d4b        0xf /mnt/md0/miranda/openwrt/tmp/cca1aXTG.ltrans0.ltrans.o
                0x00444d4b                bb_msg_standard_input
 .rodata.ctrlconv
                0x00444d5a       0x21 /mnt/md0/miranda/openwrt/tmp/cca1aXTG.ltrans0.ltrans.o
 .rodata.controls
                0x00444d7b       0x21 /mnt/md0/miranda/openwrt/tmp/cca1aXTG.ltrans0.ltrans.o
 .rodata.bb_msg_you_must_be_root
                0x00444d9c       0x11 /mnt/md0/miranda/openwrt/tmp/cca1aXTG.ltrans0.ltrans.o
                0x00444d9c                bb_msg_you_must_be_root
 .rodata.DowAry
                0x00444dad       0x16 /mnt/md0/miranda/openwrt/tmp/cca1aXTG.ltrans0.ltrans.o
 .rodata.MonAry
                0x00444dc3       0x25 /mnt/md0/miranda/openwrt/tmp/cca1aXTG.ltrans0.ltrans.o
 .rodata.bb_default_login_shell
                0x00444de8        0x9 /mnt/md0/miranda/openwrt/tmp/cca1aXTG.ltrans0.ltrans.o
                0x00444de8                bb_default_login_shell
 .rodata.bb_msg_invalid_date
                0x00444df1       0x12 /mnt/md0/miranda/openwrt/tmp/cca1aXTG.ltrans0.ltrans.o
                0x00444df1                bb_msg_invalid_date
 .rodata.bb_msg_memory_exhausted
                0x00444e03        0xe /mnt/md0/miranda/openwrt/tmp/cca1aXTG.ltrans0.ltrans.o
                0x00444e03                bb_msg_memory_exhausted
 .rodata.bb_hexdigits_upcase
                0x00444e11       0x11 /mnt/md0/miranda/openwrt/tmp/cca1aXTG.ltrans0.ltrans.o
 .rodata.applet_flags
                0x00444e22       0x1e /mnt/md0/miranda/openwrt/tmp/cca1aXTG.ltrans0.ltrans.o
 .rodata.bb_busybox_exec_path
                0x00444e40        0xf /mnt/md0/miranda/openwrt/tmp/cca1aXTG.ltrans0.ltrans.o
                0x00444e40                bb_busybox_exec_path
 .rodata.applet_names
                0x00444e4f      0x2b5 /mnt/md0/miranda/openwrt/tmp/cca1aXTG.ltrans0.ltrans.o
 .rodata.bb_banner
                0x00445104       0x2a /mnt/md0/miranda/openwrt/tmp/cca1aXTG.ltrans0.ltrans.o
                0x00445104                bb_banner
 .rodata.usage_messages
                0x0044512e     0x78b3 /mnt/md0/miranda/openwrt/tmp/cca1aXTG.ltrans0.ltrans.o
 .rodata.keywords.lto_priv.1
                0x0044c9e1       0x61 /mnt/md0/miranda/openwrt/tmp/cca1aXTG.ltrans1.ltrans.o
 .rodata.ip_rule_commands.0
                0x0044ca42       0x16 /mnt/md0/miranda/openwrt/tmp/cca1aXTG.ltrans1.ltrans.o
 .rodata.keywords.lto_priv.0
                0x0044ca58       0x86 /mnt/md0/miranda/openwrt/tmp/cca1aXTG.ltrans1.ltrans.o
 .rodata.ip_route_commands.4
                0x0044cade       0x49 /mnt/md0/miranda/openwrt/tmp/cca1aXTG.ltrans1.ltrans.o
 .rodata.options.3
                0x0044cb27       0x26 /mnt/md0/miranda/openwrt/tmp/cca1aXTG.ltrans1.ltrans.o
 .rodata.fn.1   0x0044cb4d       0x1f /mnt/md0/miranda/openwrt/tmp/cca1aXTG.ltrans1.ltrans.o
 .rodata.keywords.2.lto_priv.2
                0x0044cb6c       0x4e /mnt/md0/miranda/openwrt/tmp/cca1aXTG.ltrans1.ltrans.o
 .rodata.keywords.0.lto_priv.1
                0x0044cbba       0x42 /mnt/md0/miranda/openwrt/tmp/cca1aXTG.ltrans1.ltrans.o
 .rodata.ip_neigh_commands.3
                0x0044cbfc        0xc /mnt/md0/miranda/openwrt/tmp/cca1aXTG.ltrans1.ltrans.o
 .rodata.nuds.0
                0x0044cc08        0x9 /mnt/md0/miranda/openwrt/tmp/cca1aXTG.ltrans1.ltrans.o
 .rodata.keywords.1
                0x0044cc11       0x44 /mnt/md0/miranda/openwrt/tmp/cca1aXTG.ltrans1.ltrans.o
 .rodata.keywords.2.lto_priv.1
                0x0044cc55        0xc /mnt/md0/miranda/openwrt/tmp/cca1aXTG.ltrans1.ltrans.o
 .rodata.keywords.0.lto_priv.0
                0x0044cc61       0x4f /mnt/md0/miranda/openwrt/tmp/cca1aXTG.ltrans1.ltrans.o
 .rodata.keywords.4
                0x0044ccb0       0x1e /mnt/md0/miranda/openwrt/tmp/cca1aXTG.ltrans1.ltrans.o
 .rodata.protocols.1
                0x0044ccce       0x10 /mnt/md0/miranda/openwrt/tmp/cca1aXTG.ltrans1.ltrans.o
 .rodata.keywords.2.lto_priv.0
                0x0044ccde       0x31 /mnt/md0/miranda/openwrt/tmp/cca1aXTG.ltrans1.ltrans.o
 .rodata.keywords.3
                0x0044cd0f       0x1c /mnt/md0/miranda/openwrt/tmp/cca1aXTG.ltrans1.ltrans.o
 .rodata.commands.1
                0x0044cd2b       0x33 /mnt/md0/miranda/openwrt/tmp/cca1aXTG.ltrans1.ltrans.o
 .rodata.option.0
                0x0044cd5e       0x5f /mnt/md0/miranda/openwrt/tmp/cca1aXTG.ltrans1.ltrans.o
 .rodata.option.5
                0x0044cdbd       0x17 /mnt/md0/miranda/openwrt/tmp/cca1aXTG.ltrans1.ltrans.o
 .rodata.bb_msg_requires_arg
                0x0044cdd4       0x18 /mnt/md0/miranda/openwrt/tmp/cca1aXTG.ltrans1.ltrans.o
                0x0044cdd4                bb_msg_requires_arg
 .rodata.flag_labels.2
                0x0044cdec       0x3c /mnt/md0/miranda/openwrt/tmp/cca1aXTG.ltrans1.ltrans.o
 .rodata.arphrd_name.1
                0x0044ce28       0x7d /mnt/md0/miranda/openwrt/tmp/cca1aXTG.ltrans1.ltrans.o
 .rodata.operstate_labels.4
                0x0044cea5       0x3b /mnt/md0/miranda/openwrt/tmp/cca1aXTG.ltrans1.ltrans.o
 .rodata.tbl_verb
                0x0044cee0       0x13 /mnt/md0/miranda/openwrt/tmp/cca1aXTG.ltrans1.ltrans.o
 .rodata.flagchars
                0x0044cef3        0xc /mnt/md0/miranda/openwrt/tmp/cca1aXTG.ltrans1.ltrans.o
 .rodata.tbl_ipvx
                0x0044ceff       0x5c /mnt/md0/miranda/openwrt/tmp/cca1aXTG.ltrans1.ltrans.o
 .rodata.tbl_hash_net_host
                0x0044cf5b        0xe /mnt/md0/miranda/openwrt/tmp/cca1aXTG.ltrans1.ltrans.o
 .rodata.nodesize
                0x0044cf69       0x1b /mnt/md0/miranda/openwrt/tmp/cca1aXTG.ltrans2.ltrans.o
 .rodata.bb_PATH_root_path
                0x0044cf84       0x23 /mnt/md0/miranda/openwrt/tmp/cca1aXTG.ltrans2.ltrans.o
                0x0044cf84                bb_PATH_root_path
 .rodata.defifsvar
                0x0044cfa7        0x8 /mnt/md0/miranda/openwrt/tmp/cca1aXTG.ltrans2.ltrans.o
                0x0044cfa7                defifsvar
 .rodata.chars.0
                0x0044cfaf        0x7 /mnt/md0/miranda/openwrt/tmp/cca1aXTG.ltrans2.ltrans.o
 .rodata.dolatstr.lto_priv.0
                0x0044cfb6        0x7 /mnt/md0/miranda/openwrt/tmp/cca1aXTG.ltrans2.ltrans.o
                0x0044cfb6                dolatstr.lto_priv.0
 .rodata.spclchars.3
                0x0044cfbd        0xc /mnt/md0/miranda/openwrt/tmp/cca1aXTG.ltrans2.ltrans.o
 .rodata.syntax_index_table.lto_priv.0
                0x0044cfc9      0x101 /mnt/md0/miranda/openwrt/tmp/cca1aXTG.ltrans2.ltrans.o
                0x0044cfc9                syntax_index_table.lto_priv.0
 .rodata.qchars.4
                0x0044d0ca        0x4 /mnt/md0/miranda/openwrt/tmp/cca1aXTG.ltrans2.ltrans.o
 .rodata.vstype.2
                0x0044d0ce       0x30 /mnt/md0/miranda/openwrt/tmp/cca1aXTG.ltrans2.ltrans.o
 .rodata.fields.0
                0x0044d0fe       0x6a /mnt/md0/miranda/openwrt/tmp/cca1aXTG.ltrans2.ltrans.o
 .rodata.fmt.1  0x0044d168       0x2c /mnt/md0/miranda/openwrt/tmp/cca1aXTG.ltrans2.ltrans.o
 .rodata.signals.lto_priv.0
                0x0044d194       0xe0 /mnt/md0/miranda/openwrt/tmp/cca1aXTG.ltrans2.ltrans.o
                0x0044d194                signals.lto_priv.0
 .rodata.dhcp_option_lengths
                0x0044d274        0xd /mnt/md0/miranda/openwrt/tmp/cca1aXTG.ltrans2.ltrans.o
                0x0044d274                dhcp_option_lengths
 .rodata.udhcpc_longopts
                0x0044d281       0xda /mnt/md0/miranda/openwrt/tmp/cca1aXTG.ltrans2.ltrans.o
 .rodata.dhcp_option_strings
                0x0044d35b      0x119 /mnt/md0/miranda/openwrt/tmp/cca1aXTG.ltrans2.ltrans.o
                0x0044d35b                dhcp_option_strings
 .rodata.filesystems.0
                0x0044d474       0x24 /mnt/md0/miranda/openwrt/tmp/cca1aXTG.ltrans3.ltrans.o
 .rodata.bb_msg_perm_denied_are_you_root
                0x0044d498       0x22 /mnt/md0/miranda/openwrt/tmp/cca1aXTG.ltrans3.ltrans.o
                0x0044d498                bb_msg_perm_denied_are_you_root
 .rodata.mount_option_str
                0x0044d4ba      0x166 /mnt/md0/miranda/openwrt/tmp/cca1aXTG.ltrans3.ltrans.o
 .rodata.SWAPSPACE2
                0x0044d620        0xa /mnt/md0/miranda/openwrt/tmp/cca1aXTG.ltrans3.ltrans.o
 .rodata.hwclock_longopts.0
                0x0044d62a       0x3c /mnt/md0/miranda/openwrt/tmp/cca1aXTG.ltrans3.ltrans.o
 .rodata.add_first
                0x0044d666        0xc /mnt/md0/miranda/openwrt/tmp/cca1aXTG.ltrans3.ltrans.o
 .rodata.hexdump_opts
                0x0044d672       0x10 /mnt/md0/miranda/openwrt/tmp/cca1aXTG.ltrans3.ltrans.o
 .rodata.flock_longopts.0
                0x0044d682       0x2a /mnt/md0/miranda/openwrt/tmp/cca1aXTG.ltrans3.ltrans.o
 .rodata.op_tokens
                0x0044d6ac       0x8d /mnt/md0/miranda/openwrt/tmp/cca1aXTG.ltrans3.ltrans.o
 .rodata.defoptindvar
                0x0044d739        0x9 /mnt/md0/miranda/openwrt/tmp/cca1aXTG.ltrans3.ltrans.o
 .rodata.limits_help
                0x0044d742      0x11e /mnt/md0/miranda/openwrt/tmp/cca1aXTG.ltrans3.ltrans.o
 .rodata.limit_chars
                0x0044d860       0x10 /mnt/md0/miranda/openwrt/tmp/cca1aXTG.ltrans3.ltrans.o
 .rodata.ulimit_opt_string
                0x0044d870       0x32 /mnt/md0/miranda/openwrt/tmp/cca1aXTG.ltrans3.ltrans.o
 .rodata.permuser.7
                0x0044d8a2        0x3 /mnt/md0/miranda/openwrt/tmp/cca1aXTG.ltrans3.ltrans.o
 .rodata.timescmd_str
                0x0044d8a5        0x9 /mnt/md0/miranda/openwrt/tmp/cca1aXTG.ltrans3.ltrans.o
 .rodata.xxreadtoken_tokens
                0x0044d8ae        0xa /mnt/md0/miranda/openwrt/tmp/cca1aXTG.ltrans3.ltrans.o
 .rodata.xxreadtoken_chars
                0x0044d8b8        0x7 /mnt/md0/miranda/openwrt/tmp/cca1aXTG.ltrans3.ltrans.o
 .rodata.C_escapes.5
                0x0044d8bf       0x12 /mnt/md0/miranda/openwrt/tmp/cca1aXTG.ltrans3.ltrans.o
 .rodata.types.6
                0x0044d8d1        0x6 /mnt/md0/miranda/openwrt/tmp/cca1aXTG.ltrans3.ltrans.o
 .rodata.keywords.0
                0x0044d8d7       0x21 /mnt/md0/miranda/openwrt/tmp/cca1aXTG.ltrans4.ltrans.o
 .rodata.bb_msg_standard_output
                0x0044d8f8       0x10 /mnt/md0/miranda/openwrt/tmp/cca1aXTG.ltrans4.ltrans.o
                0x0044d8f8                bb_msg_standard_output
 .rodata.oflag_words.0
                0x0044d908       0x1a /mnt/md0/miranda/openwrt/tmp/cca1aXTG.ltrans4.ltrans.o
 .rodata.iflag_words.1
                0x0044d922       0x29 /mnt/md0/miranda/openwrt/tmp/cca1aXTG.ltrans4.ltrans.o
 .rodata.conv_words.2
                0x0044d94b       0x21 /mnt/md0/miranda/openwrt/tmp/cca1aXTG.ltrans4.ltrans.o
 .rodata.keywords.3
                0x0044d96c       0x33 /mnt/md0/miranda/openwrt/tmp/cca1aXTG.ltrans4.ltrans.o
 .rodata.isoformats.0
                0x0044d99f       0x1f /mnt/md0/miranda/openwrt/tmp/cca1aXTG.ltrans4.ltrans.o
 .rodata.date_longopts
                0x0044d9be       0x35 /mnt/md0/miranda/openwrt/tmp/cca1aXTG.ltrans4.ltrans.o
 .rodata._op_on_field.0
                0x0044d9f3       0x1f /mnt/md0/miranda/openwrt/tmp/cca1aXTG.ltrans4.ltrans.o
 .rodata.extra_blbits
                0x0044da12       0x13 /mnt/md0/miranda/openwrt/tmp/cca1aXTG.ltrans4.ltrans.o
 .rodata.bl_order
                0x0044da25       0x13 /mnt/md0/miranda/openwrt/tmp/cca1aXTG.ltrans4.ltrans.o
 .rodata.extra_lbits
                0x0044da38       0x1d /mnt/md0/miranda/openwrt/tmp/cca1aXTG.ltrans4.ltrans.o
 .rodata.extra_dbits
                0x0044da55       0x1e /mnt/md0/miranda/openwrt/tmp/cca1aXTG.ltrans4.ltrans.o
 .rodata.vValues
                0x0044da73       0x19 /mnt/md0/miranda/openwrt/tmp/cca1aXTG.ltrans5.ltrans.o
 .rodata.vNames
                0x0044da8c       0x6b /mnt/md0/miranda/openwrt/tmp/cca1aXTG.ltrans5.ltrans.o
 .rodata.EMSG_DIV_BY_ZERO
                0x0044daf7       0x11 /mnt/md0/miranda/openwrt/tmp/cca1aXTG.ltrans5.ltrans.o
 .rodata.EMSG_NEGATIVE_FIELD
                0x0044db08       0x19 /mnt/md0/miranda/openwrt/tmp/cca1aXTG.ltrans5.ltrans.o
 .rodata.EMSG_UNDEF_FUNC
                0x0044db21       0x1b /mnt/md0/miranda/openwrt/tmp/cca1aXTG.ltrans5.ltrans.o
 .rodata.EMSG_POSSIBLE_ERROR
                0x0044db3c       0x16 /mnt/md0/miranda/openwrt/tmp/cca1aXTG.ltrans5.ltrans.o
 .rodata.EMSG_NOT_ARRAY
                0x0044db52        0xd /mnt/md0/miranda/openwrt/tmp/cca1aXTG.ltrans5.ltrans.o
 .rodata.EMSG_TOO_FEW_ARGS
                0x0044db5f       0x12 /mnt/md0/miranda/openwrt/tmp/cca1aXTG.ltrans5.ltrans.o
 .rodata.tokenlist
                0x0044db71      0x1c0 /mnt/md0/miranda/openwrt/tmp/cca1aXTG.ltrans5.ltrans.o
 .rodata.EMSG_UNEXP_TOKEN
                0x0044dd31       0x11 /mnt/md0/miranda/openwrt/tmp/cca1aXTG.ltrans5.ltrans.o
 .rodata.EMSG_UNEXP_EOS
                0x0044dd42       0x19 /mnt/md0/miranda/openwrt/tmp/cca1aXTG.ltrans5.ltrans.o
 .rodata.EMSG_INV_FMT
                0x0044dd5b       0x19 /mnt/md0/miranda/openwrt/tmp/cca1aXTG.ltrans5.ltrans.o
 .rodata.uname_longopts.0
                0x0044dd74       0x89 /mnt/md0/miranda/openwrt/tmp/cca1aXTG.ltrans5.ltrans.o
 .rodata.touch_longopts.0
                0x0044ddfd       0x31 /mnt/md0/miranda/openwrt/tmp/cca1aXTG.ltrans5.ltrans.o
 .rodata.ops_texts
                0x0044de2e       0x85 /mnt/md0/miranda/openwrt/tmp/cca1aXTG.ltrans5.ltrans.o
 .rodata.sort_opt_str
                0x0044deb3       0x26 /mnt/md0/miranda/openwrt/tmp/cca1aXTG.ltrans5.ltrans.o
 .rodata.format_chars.0
                0x0044ded9        0xe /mnt/md0/miranda/openwrt/tmp/cca1aXTG.ltrans5.ltrans.o
 .rodata.fmt.0  0x0044dee7       0x2d /mnt/md0/miranda/openwrt/tmp/cca1aXTG.ltrans5.ltrans.o
 .rodata.modes_chars
                0x0044df14        0x8 /mnt/md0/miranda/openwrt/tmp/cca1aXTG.ltrans5.ltrans.o
 .rodata.ls_longopts.0
                0x0044df1c       0x2f /mnt/md0/miranda/openwrt/tmp/cca1aXTG.ltrans5.ltrans.o
 .rodata.color_str.1
                0x0044df4b       0x22 /mnt/md0/miranda/openwrt/tmp/cca1aXTG.ltrans5.ltrans.o
 .rodata.head_opts
                0x0044df6d        0x7 /mnt/md0/miranda/openwrt/tmp/cca1aXTG.ltrans5.ltrans.o
 .rodata.params.1
                0x0044df74       0xa4 /mnt/md0/miranda/openwrt/tmp/cca1aXTG.ltrans6.ltrans.o
 .rodata.modifying_cmds
                0x0044e018       0x16 /mnt/md0/miranda/openwrt/tmp/cca1aXTG.ltrans6.ltrans.o
 .rodata.cmd_mode_indicator.0
                0x0044e02e        0x5 /mnt/md0/miranda/openwrt/tmp/cca1aXTG.ltrans6.ltrans.o
 .rodata.sed_longopts.1
                0x0044e033       0x43 /mnt/md0/miranda/openwrt/tmp/cca1aXTG.ltrans6.ltrans.o
 .rodata.cmd_letters.0
                0x0044e076       0x1c /mnt/md0/miranda/openwrt/tmp/cca1aXTG.ltrans6.ltrans.o
 .rodata.semicolon_whitespace
                0x0044e092        0x7 /mnt/md0/miranda/openwrt/tmp/cca1aXTG.ltrans6.ltrans.o
 .rodata.fmt_eof
                0x0044e099       0x10 /mnt/md0/miranda/openwrt/tmp/cca1aXTG.ltrans6.ltrans.o
 .rodata.fmt_differ
                0x0044e0a9       0x22 /mnt/md0/miranda/openwrt/tmp/cca1aXTG.ltrans6.ltrans.o
 .rodata.fmt_l_opt
                0x0044e0cb       0x16 /mnt/md0/miranda/openwrt/tmp/cca1aXTG.ltrans6.ltrans.o
 .rodata.cmp_longopts.0
                0x0044e0e1       0x24 /mnt/md0/miranda/openwrt/tmp/cca1aXTG.ltrans6.ltrans.o
 .rodata.bb_msg_can_not_create_raw_socket
                0x0044e105       0x18 /mnt/md0/miranda/openwrt/tmp/cca1aXTG.ltrans7.ltrans.o
 .rodata.len_of_option_as_string
                0x0044e11d        0xd /mnt/md0/miranda/openwrt/tmp/cca1aXTG.ltrans7.ltrans.o
 .rodata.size_conv_str
                0x0044e12a       0x19 /mnt/md0/miranda/openwrt/tmp/cca1aXTG.ltrans7.ltrans.o
 .rodata.esccmds.0
                0x0044e143       0x67 /mnt/md0/miranda/openwrt/tmp/cca1aXTG.ltrans7.ltrans.o
 .rodata.charmap.0
                0x0044e1aa       0x14 /mnt/md0/miranda/openwrt/tmp/cca1aXTG.ltrans7.ltrans.o
 .rodata.perm_chars.0
                0x0044e1be        0x7 /mnt/md0/miranda/openwrt/tmp/cca1aXTG.ltrans7.ltrans.o
 .rodata.who_chars.3
                0x0044e1c5        0x5 /mnt/md0/miranda/openwrt/tmp/cca1aXTG.ltrans7.ltrans.o
 .rodata.mode_chars
                0x0044e1ca        0x7 /mnt/md0/miranda/openwrt/tmp/cca1aXTG.ltrans7.ltrans.o
 .rodata.type_chars
                0x0044e1d1       0x10 /mnt/md0/miranda/openwrt/tmp/cca1aXTG.ltrans7.ltrans.o
 .rodata.forbid
                0x0044e1e1       0x96 /mnt/md0/miranda/openwrt/tmp/cca1aXTG.ltrans7.ltrans.o
 .rodata.bb_msg_unknown
                0x0044e277        0xa /mnt/md0/miranda/openwrt/tmp/cca1aXTG.ltrans7.ltrans.o
 .rodata.unit_chars.0
                0x0044e281        0x9 /mnt/md0/miranda/openwrt/tmp/cca1aXTG.ltrans7.ltrans.o
 .rodata.P_array.4
                0x0044e28a       0x30 /mnt/md0/miranda/openwrt/tmp/cca1aXTG.ltrans7.ltrans.o
 .rodata.conv_str
                0x0044e2ba       0x21 /mnt/md0/miranda/openwrt/tmp/cca1aXTG.ltrans7.ltrans.o
 .rodata.list.0
                0x0044e2db       0x7f /mnt/md0/miranda/openwrt/tmp/cca1aXTG.ltrans7.ltrans.o
 .rodata.int_convs
                0x0044e35a        0x7 /mnt/md0/miranda/openwrt/tmp/cca1aXTG.ltrans7.ltrans.o
 .rodata.dot_flags_width_chars
                0x0044e361       0x10 /mnt/md0/miranda/openwrt/tmp/cca1aXTG.ltrans7.ltrans.o

.rodata1
 *(SORT_BY_ALIGNMENT(.rodata1))

.sdata2
 *(SORT_BY_ALIGNMENT(.sdata2) SORT_BY_ALIGNMENT(.sdata2.*) SORT_BY_ALIGNMENT(.gnu.linkonce.s2.*))

.sbss2
 *(SORT_BY_ALIGNMENT(.sbss2) SORT_BY_ALIGNMENT(.sbss2.*) SORT_BY_ALIGNMENT(.gnu.linkonce.sb2.*))

.eh_frame_hdr
 *(SORT_BY_ALIGNMENT(.eh_frame_hdr))
 *(SORT_BY_ALIGNMENT(.eh_frame_entry) SORT_BY_ALIGNMENT(.eh_frame_entry.*))

.eh_frame       0x0044e374        0x4
 *(SORT_BY_ALIGNMENT(.eh_frame))
 .eh_frame      0x0044e374        0x0 /mnt/md0/miranda/openwrt/staging_dir/toolchain-mips_24kc_gcc-12.3.0_musl/lib/gcc/mips-openwrt-linux-musl/12.3.0/crtbegin.o
 .eh_frame      0x0044e374        0x4 /mnt/md0/miranda/openwrt/staging_dir/toolchain-mips_24kc_gcc-12.3.0_musl/lib/gcc/mips-openwrt-linux-musl/12.3.0/crtend.o
 *(SORT_BY_ALIGNMENT(.eh_frame.*))

.sframe
 *(SORT_BY_ALIGNMENT(.sframe))
 *(SORT_BY_ALIGNMENT(.sframe.*))

.gcc_except_table
 *(SORT_BY_ALIGNMENT(.gcc_except_table) SORT_BY_ALIGNMENT(.gcc_except_table.*))

.gnu_extab
 *(SORT_BY_ALIGNMENT(.gnu_extab*))

.exception_ranges
 *(SORT_BY_ALIGNMENT(.exception_ranges*))

.plt            0x0044e380     0x14d0
 *(SORT_BY_ALIGNMENT(.plt))
 *fill*         0x0044e380        0x0 
 .plt           0x0044e380     0x14d0 /mnt/md0/miranda/openwrt/staging_dir/toolchain-mips_24kc_gcc-12.3.0_musl/lib/gcc/mips-openwrt-linux-musl/12.3.0/../../../../mips-openwrt-linux-musl/lib/crt1.o
                0x0044e380                _PROCEDURE_LINKAGE_TABLE_
                0x0044e3a0                __register_frame_info@@GLIBC_2.0
                0x0044e3b0                __libc_start_main
                0x0044e3c0                __deregister_frame_info@@GLIBC_2.0
                0x0044e3d1                opendir
                0x0044e3e1                stpncpy
                0x0044e3f1                getmntent
                0x0044e401                execve
                0x0044e411                __floatsidf@@GCC_3.0
                0x0044e421                fdopen
                0x0044e431                execvp
                0x0044e441                getspnam_r
                0x0044e451                setuid
                0x0044e461                feof_unlocked
                0x0044e471                memcmp
                0x0044e481                qsort
                0x0044e491                ioctl
                0x0044e4a1                symlink
                0x0044e4b1                setpriority
                0x0044e4c1                flock
                0x0044e4d1                sendmsg
                0x0044e4e1                fseeko
                0x0044e4f1                __nedf2@@GCC_3.0
                0x0044e501                realloc
                0x0044e511                connect
                0x0044e521                write
                0x0044e531                fchdir
                0x0044e541                geteuid
                0x0044e551                dup2
                0x0044e561                _exit
                0x0044e571                __gmtime64_r
                0x0044e581                vfork
                0x0044e591                mktemp
                0x0044e5a1                tcsetattr
                0x0044e5b1                ns_get32
                0x0044e5c1                __bswapsi2@@GCC_4.3.0
                0x0044e5d1                getgid
                0x0044e5e1                setsid
                0x0044e5f1                endgrent
                0x0044e601                sscanf
                0x0044e611                fsync
                0x0044e621                umount2
                0x0044e631                strcspn
                0x0044e641                srand
                0x0044e651                getpagesize
                0x0044e661                pipe
                0x0044e671                access
                0x0044e681                __floatunsidf@@GCC_4.2.0
                0x0044e691                snprintf
                0x0044e6a1                dup
                0x0044e6b1                __mktime64
                0x0044e6c1                __truncdfsf2@@GCC_3.0
                0x0044e6d1                signal
                0x0044e6e1                lseek
                0x0044e6f1                recvmsg
                0x0044e701                freopen
                0x0044e711                cos
                0x0044e721                getpid
                0x0044e731                strcmp
                0x0044e741                readdir
                0x0044e751                __eqdf2@@GCC_3.0
                0x0044e761                __floatdidf@@GCC_3.0
                0x0044e771                strndup
                0x0044e781                __ashldi3@@GCC_3.0
                0x0044e791                memset
                0x0044e7a1                setgid
                0x0044e7b1                stpcpy
                0x0044e7c1                unlink
                0x0044e7d1                putenv
                0x0044e7e1                __fstat_time64
                0x0044e7f1                regerror
                0x0044e801                getpriority
                0x0044e811                recvfrom
                0x0044e821                closelog
                0x0044e831                malloc
                0x0044e841                getcwd
                0x0044e851                fork
                0x0044e861                strverscmp
                0x0044e871                memmove
                0x0044e881                gethostbyname
                0x0044e891                strcat
                0x0044e8a1                getmntent_r
                0x0044e8b1                strcasestr
                0x0044e8c1                rand
                0x0044e8d1                fflush
                0x0044e8e1                log
                0x0044e8f1                fchown
                0x0044e901                strncmp
                0x0044e911                system
                0x0044e921                recv
                0x0044e931                __clock_settime64
                0x0044e941                __divdf3@@GCC_3.0
                0x0044e951                strcpy
                0x0044e961                chroot
                0x0044e971                __ltdf2@@GCC_3.0
                0x0044e981                scanf
                0x0044e991                getgrnam
                0x0044e9a1                __floatundidf@@GCC_4.2.0
                0x0044e9b1                strrchr
                0x0044e9c1                sigsetjmp
                0x0044e9d1                getnameinfo
                0x0044e9e1                __gedf2@@GCC_3.0
                0x0044e9f1                closedir
                0x0044ea01                dprintf
                0x0044ea11                strnlen
                0x0044ea21                fclose
                0x0044ea31                sqrt
                0x0044ea41                setjmp
                0x0044ea51                chown
                0x0044ea61                setenv
                0x0044ea71                strdup
                0x0044ea81                inet_addr
                0x0044ea91                sleep
                0x0044eaa1                wait
                0x0044eab1                open
                0x0044eac1                __clock_gettime64
                0x0044ead1                pow
                0x0044eae1                getgrgid
                0x0044eaf1                strtoll
                0x0044eb01                strstr
                0x0044eb11                ns_name_uncompress
                0x0044eb21                vfprintf
                0x0044eb31                kill
                0x0044eb41                rename
                0x0044eb51                syslog
                0x0044eb61                strtok_r
                0x0044eb71                unsetenv
                0x0044eb81                getpwnam
                0x0044eb91                link
                0x0044eba1                __utimes_time64
                0x0044ebb1                fscanf
                0x0044ebc1                getsockname
                0x0044ebd1                perror
                0x0044ebe1                __futimens_time64
                0x0044ebf1                __utimensat_time64
                0x0044ec01                strchr
                0x0044ec11                strncasecmp
                0x0044ec21                chmod
                0x0044ec31                inet_pton
                0x0044ec41                __fixunsdfsi@@GCC_3.0
                0x0044ec51                __lshrdi3@@GCC_3.0
                0x0044ec61                strspn
                0x0044ec71                strpbrk
                0x0044ec81                crypt
                0x0044ec91                getgroups
                0x0044eca1                bind
                0x0044ecb1                reboot
                0x0044ecc1                getppid
                0x0044ecd1                if_nametoindex
                0x0044ece1                poll
                0x0044ecf1                fgets_unlocked
                0x0044ed01                mount
                0x0044ed11                getpwuid
                0x0044ed21                popen
                0x0044ed31                printf
                0x0044ed41                __localtime64_r
                0x0044ed51                __ashrdi3@@GCC_3.0
                0x0044ed61                fnmatch
                0x0044ed71                __gtdf2@@GCC_3.0
                0x0044ed81                waitpid
                0x0044ed91                fwrite
                0x0044eda1                getegid
                0x0044edb1                regfree
                0x0044edc1                alarm
                0x0044edd1                ns_initparse
                0x0044ede1                readlink
                0x0044edf1                swapon
                0x0044ee01                strncpy
                0x0044ee11                tzset
                0x0044ee21                sigemptyset
                0x0044ee31                mempcpy
                0x0044ee41                getchar_unlocked
                0x0044ee51                setrlimit
                0x0044ee61                dirname
                0x0044ee71                exit
                0x0044ee81                raise
                0x0044ee91                strptime
                0x0044eea1                __wait3_time64
                0x0044eeb1                ttyname_r
                0x0044eec1                fprintf
                0x0044eed1                vprintf
                0x0044eee1                strchrnul
                0x0044eef1                memrchr
                0x0044ef01                execlp
                0x0044ef11                ns_get16
                0x0044ef21                __bswapdi2@@GCC_4.3.0
                0x0044ef31                tcgetattr
                0x0044ef41                __divdi3@@GLIBC_2.0
                0x0044ef51                freeaddrinfo
                0x0044ef61                setegid
                0x0044ef71                getservbyname
                0x0044ef81                strtoul
                0x0044ef91                fread
                0x0044efa1                socket
                0x0044efb1                getsid
                0x0044efc1                close
                0x0044efd1                mkstemp
                0x0044efe1                sysconf
                0x0044eff1                killpg
                0x0044f001                umask
                0x0044f011                putchar_unlocked
                0x0044f021                sin
                0x0044f031                regexec
                0x0044f041                fileno_unlocked
                0x0044f051                res_mkquery
                0x0044f061                getrlimit
                0x0044f071                execl
                0x0044f081                sched_setaffinity
                0x0044f091                ns_parserr
                0x0044f0a1                inet_aton
                0x0044f0b1                setbuf
                0x0044f0c1                read
                0x0044f0d1                getgrouplist
                0x0044f0e1                __ledf2@@GCC_3.0
                0x0044f0f1                initgroups
                0x0044f101                seteuid
                0x0044f111                htons
                0x0044f121                rmdir
                0x0044f131                sigprocmask
                0x0044f141                __stat_time64
                0x0044f151                mknod
                0x0044f161                htonl
                0x0044f171                prctl
                0x0044f181                openlog
                0x0044f191                __muldf3@@GCC_3.0
                0x0044f1a1                putc_unlocked
                0x0044f1b1                __time64
                0x0044f1c1                strtoull
                0x0044f1d1                __errno_location
                0x0044f1e1                setsockopt
                0x0044f1f1                bsearch
                0x0044f201                setmntent
                0x0044f211                mkdir
                0x0044f221                getpgrp
                0x0044f231                sched_getaffinity
                0x0044f241                sigsuspend
                0x0044f251                fcntl
                0x0044f261                __nanosleep_time64
                0x0044f271                clearenv
                0x0044f281                getservbyport
                0x0044f291                __gettimeofday_time64
                0x0044f2a1                clearerr
                0x0044f2b1                fputs
                0x0044f2c1                realpath
                0x0044f2d1                vsnprintf
                0x0044f2e1                __fixdfdi@@GCC_3.0
                0x0044f2f1                setpgid
                0x0044f301                chdir
                0x0044f311                sync
                0x0044f321                __settimeofday_time64
                0x0044f331                ftruncate
                0x0044f341                pivot_root
                0x0044f351                statfs
                0x0044f361                syscall
                0x0044f371                mkfifo
                0x0044f381                execv
                0x0044f391                __udivdi3@@GLIBC_2.0
                0x0044f3a1                times
                0x0044f3b1                statvfs
                0x0044f3c1                sendto
                0x0044f3d1                __umoddi3@@GLIBC_2.0
                0x0044f3e1                getopt
                0x0044f3f1                free
                0x0044f401                __moddi3@@GLIBC_2.0
                0x0044f411                strftime
                0x0044f421                tcflush
                0x0044f431                pclose
                0x0044f441                atoi
                0x0044f451                isatty
                0x0044f461                ungetc
                0x0044f471                memchr
                0x0044f481                hasmntopt
                0x0044f491                __localtime64
                0x0044f4a1                siglongjmp
                0x0044f4b1                inet_ntoa
                0x0044f4c1                __subdf3@@GCC_3.0
                0x0044f4d1                __adjtimex_time64
                0x0044f4e1                puts
                0x0044f4f1                __lstat_time64
                0x0044f501                tcsetpgrp
                0x0044f511                endmntent
                0x0044f521                strerror
                0x0044f531                fopen
                0x0044f541                ferror_unlocked
                0x0044f551                longjmp
                0x0044f561                __adddf3@@GCC_3.0
                0x0044f571                lchown
                0x0044f581                vasprintf
                0x0044f591                fputs_unlocked
                0x0044f5a1                ntohl
                0x0044f5b1                strsignal
                0x0044f5c1                ntohs
                0x0044f5d1                getc_unlocked
                0x0044f5e1                tcgetpgrp
                0x0044f5f1                inet_ntop
                0x0044f601                setpgrp
                0x0044f611                sigaddset
                0x0044f621                atan2
                0x0044f631                exp
                0x0044f641                sprintf
                0x0044f651                getenv
                0x0044f661                sendfile
                0x0044f671                __fixdfsi@@GCC_3.0
                0x0044f681                __ctime64
                0x0044f691                sigaction
                0x0044f6a1                __extendsfdf2@@GCC_3.0
                0x0044f6b1                memcpy
                0x0044f6c1                sigfillset
                0x0044f6d1                fdatasync
                0x0044f6e1                sched_yield
                0x0044f6f1                __setitimer_time64
                0x0044f701                strtod
                0x0044f711                regcomp
                0x0044f721                uname
                0x0044f731                strlen
                0x0044f741                shutdown
                0x0044f751                fchmod
                0x0044f761                klogctl
                0x0044f771                strtol
                0x0044f781                __stack_chk_fail
                0x0044f791                usleep
                0x0044f7a1                mmap
                0x0044f7b1                getopt_long
                0x0044f7c1                mkdtemp
                0x0044f7d1                swapoff
                0x0044f7e1                setgroups
                0x0044f7f1                getaddrinfo
                0x0044f801                strcasecmp
                0x0044f811                getuid
                0x0044f821                strsep
                0x0044f831                sysinfo
                0x0044f841                getline

.iplt
 *(SORT_BY_ALIGNMENT(.iplt))
                0x0045fab8                        . = DATA_SEGMENT_ALIGN (CONSTANT (MAXPAGESIZE), CONSTANT (COMMONPAGESIZE))

.eh_frame
 *(SORT_BY_ALIGNMENT(.eh_frame))
 *(SORT_BY_ALIGNMENT(.eh_frame.*))

.sframe
 *(SORT_BY_ALIGNMENT(.sframe))
 *(SORT_BY_ALIGNMENT(.sframe.*))

.gnu_extab
 *(SORT_BY_ALIGNMENT(.gnu_extab))

.gcc_except_table
 *(SORT_BY_ALIGNMENT(.gcc_except_table) SORT_BY_ALIGNMENT(.gcc_except_table.*))

.exception_ranges
 *(SORT_BY_ALIGNMENT(.exception_ranges*))

.tdata          0x0045fab8        0x0
                [!provide]                        PROVIDE (__tdata_start = .)
 *(SORT_BY_ALIGNMENT(.tdata) SORT_BY_ALIGNMENT(.tdata.*) SORT_BY_ALIGNMENT(.gnu.linkonce.td.*))

.tbss
 *(SORT_BY_ALIGNMENT(.tbss) SORT_BY_ALIGNMENT(.tbss.*) SORT_BY_ALIGNMENT(.gnu.linkonce.tb.*))
 *(SORT_BY_ALIGNMENT(.tcommon))

.preinit_array  0x0045fab8        0x0
                [!provide]                        PROVIDE (__preinit_array_start = .)
 *(SORT_BY_ALIGNMENT(.preinit_array))
                [!provide]                        PROVIDE (__preinit_array_end = .)

.init_array     0x0045fab8        0x4
                [!provide]                        PROVIDE (__init_array_start = .)
 *(SORT_BY_INIT_PRIORITY(.init_array.*) SORT_BY_INIT_PRIORITY(.ctors.*))
 *(SORT_BY_ALIGNMENT(.init_array) SORT_BY_ALIGNMENT(EXCLUDE_FILE(*crtend?.o *crtend.o *crtbegin?.o *crtbegin.o) .ctors))
 .init_array    0x0045fab8        0x4 /mnt/md0/miranda/openwrt/staging_dir/toolchain-mips_24kc_gcc-12.3.0_musl/lib/gcc/mips-openwrt-linux-musl/12.3.0/crtbegin.o
                [!provide]                        PROVIDE (__init_array_end = .)

.fini_array     0x0045fabc        0x4
                [!provide]                        PROVIDE (__fini_array_start = .)
 *(SORT_BY_INIT_PRIORITY(.fini_array.*) SORT_BY_INIT_PRIORITY(.dtors.*))
 *(SORT_BY_ALIGNMENT(.fini_array) SORT_BY_ALIGNMENT(EXCLUDE_FILE(*crtend?.o *crtend.o *crtbegin?.o *crtbegin.o) .dtors))
 .fini_array    0x0045fabc        0x4 /mnt/md0/miranda/openwrt/staging_dir/toolchain-mips_24kc_gcc-12.3.0_musl/lib/gcc/mips-openwrt-linux-musl/12.3.0/crtbegin.o
                [!provide]                        PROVIDE (__fini_array_end = .)

.ctors
 *crtbegin.o(SORT_BY_ALIGNMENT(.ctors))
 *crtbegin?.o(SORT_BY_ALIGNMENT(.ctors))
 *(SORT_BY_ALIGNMENT(EXCLUDE_FILE(*crtend?.o *crtend.o) .ctors))
 *(SORT_BY_NAME(SORT_BY_ALIGNMENT(.ctors.*)))
 *(SORT_BY_ALIGNMENT(.ctors))

.dtors
 *crtbegin.o(SORT_BY_ALIGNMENT(.dtors))
 *crtbegin?.o(SORT_BY_ALIGNMENT(.dtors))
 *(SORT_BY_ALIGNMENT(EXCLUDE_FILE(*crtend?.o *crtend.o) .dtors))
 *(SORT_BY_NAME(SORT_BY_ALIGNMENT(.dtors.*)))
 *(SORT_BY_ALIGNMENT(.dtors))

.jcr
 *(SORT_BY_ALIGNMENT(.jcr))

.data.rel.ro    0x0045fac0        0xc
 *(SORT_BY_ALIGNMENT(.data.rel.ro.local*) SORT_BY_ALIGNMENT(.gnu.linkonce.d.rel.ro.local.*))
 *(SORT_BY_ALIGNMENT(.data.rel.ro) SORT_BY_ALIGNMENT(.data.rel.ro.*) SORT_BY_ALIGNMENT(.gnu.linkonce.d.rel.ro.*))
 .data.rel.ro   0x0045fac0        0xc /mnt/md0/miranda/openwrt/staging_dir/toolchain-mips_24kc_gcc-12.3.0_musl/lib/gcc/mips-openwrt-linux-musl/12.3.0/../../../../mips-openwrt-linux-musl/lib/crt1.o
                0x0045fac0                stderr
                0x0045fac4                stdout
                0x0045fac8                stdin

.got.plt        0x0045facc      0x534
 *(SORT_BY_ALIGNMENT(.got.plt))
 .got.plt       0x0045facc      0x534 /mnt/md0/miranda/openwrt/staging_dir/toolchain-mips_24kc_gcc-12.3.0_musl/lib/gcc/mips-openwrt-linux-musl/12.3.0/../../../../mips-openwrt-linux-musl/lib/crt1.o
                0x00460000                        . = DATA_SEGMENT_RELRO_END (., 0x0)

.data           0x00460000        0xe
                0x00460000                        _fdata = .
 *(SORT_BY_ALIGNMENT(.data) SORT_BY_ALIGNMENT(.data.*) SORT_BY_ALIGNMENT(.gnu.linkonce.d.*))
 .data.ttyfd    0x00460000        0x4 /mnt/md0/miranda/openwrt/tmp/cca1aXTG.ltrans2.ltrans.o
 .data.builtinloc.lto_priv.0
                0x00460004        0x4 /mnt/md0/miranda/openwrt/tmp/cca1aXTG.ltrans2.ltrans.o
                0x00460004                builtinloc.lto_priv.0
 .data.g_parsefile.lto_priv.0
                0x00460008        0x4 /mnt/md0/miranda/openwrt/tmp/cca1aXTG.ltrans2.ltrans.o
                0x00460008                g_parsefile.lto_priv.0
 .data.logmode  0x0046000c        0x1 /mnt/md0/miranda/openwrt/tmp/cca1aXTG.ltrans0.ltrans.o
                0x0046000c                logmode
 .data.xfunc_error_retval
                0x0046000d        0x1 /mnt/md0/miranda/openwrt/tmp/cca1aXTG.ltrans0.ltrans.o
                0x0046000d                xfunc_error_retval

.rld_map        0x00460010        0x4
 .rld_map       0x00460010        0x4 /mnt/md0/miranda/openwrt/staging_dir/toolchain-mips_24kc_gcc-12.3.0_musl/lib/gcc/mips-openwrt-linux-musl/12.3.0/../../../../mips-openwrt-linux-musl/lib/crt1.o
                0x00460010                __RLD_MAP

.data1
 *(SORT_BY_ALIGNMENT(.data1))
                0x00460014                        . = .
                0x00468010                        _gp = (ALIGN (0x10) + 0x7ff0)

.got            0x00460020        0x8
 *(SORT_BY_ALIGNMENT(.got))
 .got           0x00460020        0x8 /mnt/md0/miranda/openwrt/staging_dir/toolchain-mips_24kc_gcc-12.3.0_musl/lib/gcc/mips-openwrt-linux-musl/12.3.0/../../../../mips-openwrt-linux-musl/lib/crt1.o
                0x00460020                _GLOBAL_OFFSET_TABLE_

.sdata
 *(SORT_BY_ALIGNMENT(.sdata) SORT_BY_ALIGNMENT(.sdata.*) SORT_BY_ALIGNMENT(.gnu.linkonce.s.*))

.lit8
 *(SORT_BY_ALIGNMENT(.lit8))

.lit4
 *(SORT_BY_ALIGNMENT(.lit4))
                0x00460028                        _edata = .
                [!provide]                        PROVIDE (edata = .)
                0x00460028                        . = .
                0x00460028                        __bss_start = .
                0x00460028                        _fbss = .

.sbss
 *(SORT_BY_ALIGNMENT(.dynsbss))
 *(SORT_BY_ALIGNMENT(.sbss) SORT_BY_ALIGNMENT(.sbss.*) SORT_BY_ALIGNMENT(.gnu.linkonce.sb.*))
 *(SORT_BY_ALIGNMENT(.scommon))

.bss            0x00460030      0x6a0
 *(SORT_BY_ALIGNMENT(.dynbss))
 .dynbss        0x00460030       0x10 /mnt/md0/miranda/openwrt/staging_dir/toolchain-mips_24kc_gcc-12.3.0_musl/lib/gcc/mips-openwrt-linux-musl/12.3.0/../../../../mips-openwrt-linux-musl/lib/crt1.o
                0x00460030                _environ
                0x00460030                __environ
                0x00460030                environ
                0x00460030                ___environ
                0x00460034                optarg
                0x00460038                __stack_chk_guard
                0x0046003c                optind
 *(SORT_BY_ALIGNMENT(.bss) SORT_BY_ALIGNMENT(.bss.*) SORT_BY_ALIGNMENT(.gnu.linkonce.b.*))
 .bss           0x00460040       0x20 /mnt/md0/miranda/openwrt/staging_dir/toolchain-mips_24kc_gcc-12.3.0_musl/lib/gcc/mips-openwrt-linux-musl/12.3.0/crtbegin.o
 .bss.bb_common_bufsiz1
                0x00460060      0x400 /mnt/md0/miranda/openwrt/tmp/cca1aXTG.ltrans0.ltrans.o
                0x00460060                bb_common_bufsiz1
 .bss.die_jmp   0x00460460       0xf0 /mnt/md0/miranda/openwrt/tmp/cca1aXTG.ltrans0.ltrans.o
 .bss.file      0x00460550        0x4 /mnt/md0/miranda/openwrt/tmp/cca1aXTG.ltrans0.ltrans.o
 .bss.try_lock  0x00460554        0x4 /mnt/md0/miranda/openwrt/tmp/cca1aXTG.ltrans0.ltrans.o
 .bss.unlock    0x00460558        0x4 /mnt/md0/miranda/openwrt/tmp/cca1aXTG.ltrans0.ltrans.o
 .bss.shared    0x0046055c        0x4 /mnt/md0/miranda/openwrt/tmp/cca1aXTG.ltrans0.ltrans.o
 .bss.waitonly  0x00460560        0x4 /mnt/md0/miranda/openwrt/tmp/cca1aXTG.ltrans0.ltrans.o
 .bss.fd        0x00460564        0x4 /mnt/md0/miranda/openwrt/tmp/cca1aXTG.ltrans0.ltrans.o
 .bss.ptr_to_globals
                0x00460568        0x4 /mnt/md0/miranda/openwrt/tmp/cca1aXTG.ltrans0.ltrans.o
                0x00460568                ptr_to_globals
 .bss.local_buf
                0x0046056c        0xc /mnt/md0/miranda/openwrt/tmp/cca1aXTG.ltrans0.ltrans.o
 .bss.option_mask32
                0x00460578        0x4 /mnt/md0/miranda/openwrt/tmp/cca1aXTG.ltrans0.ltrans.o
                0x00460578                option_mask32
 .bss.die_func  0x0046057c        0x4 /mnt/md0/miranda/openwrt/tmp/cca1aXTG.ltrans0.ltrans.o
                0x0046057c                die_func
 .bss.bb_errno  0x00460580        0x4 /mnt/md0/miranda/openwrt/tmp/cca1aXTG.ltrans0.ltrans.o
                0x00460580                bb_errno
 .bss.applet_name
                0x00460584        0x4 /mnt/md0/miranda/openwrt/tmp/cca1aXTG.ltrans0.ltrans.o
                0x00460584                applet_name
 .bss.hz_internal.0
                0x00460588        0x4 /mnt/md0/miranda/openwrt/tmp/cca1aXTG.ltrans1.ltrans.o
 .bss.rtnl_rttable_tab
                0x0046058c        0x4 /mnt/md0/miranda/openwrt/tmp/cca1aXTG.ltrans1.ltrans.o
 .bss.idxmap    0x00460590        0x4 /mnt/md0/miranda/openwrt/tmp/cca1aXTG.ltrans1.ltrans.o
 .bss.rtnl_rtrealm_tab
                0x00460594        0x4 /mnt/md0/miranda/openwrt/tmp/cca1aXTG.ltrans1.ltrans.o
 .bss.rtnl_rtdsfield_tab
                0x00460598        0x4 /mnt/md0/miranda/openwrt/tmp/cca1aXTG.ltrans1.ltrans.o
 .bss.rtnl_rtprot_tab
                0x0046059c        0x4 /mnt/md0/miranda/openwrt/tmp/cca1aXTG.ltrans1.ltrans.o
 .bss.rtnl_rtscope_tab
                0x004605a0        0x4 /mnt/md0/miranda/openwrt/tmp/cca1aXTG.ltrans1.ltrans.o
 .bss.line_input_state.lto_priv.0
                0x004605a4        0x4 /mnt/md0/miranda/openwrt/tmp/cca1aXTG.ltrans2.ltrans.o
                0x004605a4                line_input_state.lto_priv.0
 .bss.loopnest.lto_priv.0
                0x004605a8        0x4 /mnt/md0/miranda/openwrt/tmp/cca1aXTG.ltrans2.ltrans.o
                0x004605a8                loopnest.lto_priv.0
 .bss.skipcount.lto_priv.0
                0x004605ac        0x4 /mnt/md0/miranda/openwrt/tmp/cca1aXTG.ltrans2.ltrans.o
                0x004605ac                skipcount.lto_priv.0
 .bss.funcblock
                0x004605b0        0x4 /mnt/md0/miranda/openwrt/tmp/cca1aXTG.ltrans2.ltrans.o
 .bss.funcstring_end
                0x004605b4        0x4 /mnt/md0/miranda/openwrt/tmp/cca1aXTG.ltrans2.ltrans.o
 .bss.lastcmdentry
                0x004605b8        0x4 /mnt/md0/miranda/openwrt/tmp/cca1aXTG.ltrans2.ltrans.o
 .bss.exparg    0x004605bc        0x8 /mnt/md0/miranda/openwrt/tmp/cca1aXTG.ltrans2.ltrans.o
 .bss.argbackq  0x004605c4        0x4 /mnt/md0/miranda/openwrt/tmp/cca1aXTG.ltrans2.ltrans.o
 .bss.expdest   0x004605c8        0x4 /mnt/md0/miranda/openwrt/tmp/cca1aXTG.ltrans2.ltrans.o
 .bss.ifslastp  0x004605cc        0x4 /mnt/md0/miranda/openwrt/tmp/cca1aXTG.ltrans2.ltrans.o
 .bss.ifsfirst  0x004605d0       0x10 /mnt/md0/miranda/openwrt/tmp/cca1aXTG.ltrans2.ltrans.o
 .bss.basepf.lto_priv.0
                0x004605e0       0x54 /mnt/md0/miranda/openwrt/tmp/cca1aXTG.ltrans2.ltrans.o
                0x004605e0                basepf.lto_priv.0
 .bss.cmdnextc  0x00460634        0x4 /mnt/md0/miranda/openwrt/tmp/cca1aXTG.ltrans2.ltrans.o
 .bss.initialpgrp
                0x00460638        0x4 /mnt/md0/miranda/openwrt/tmp/cca1aXTG.ltrans2.ltrans.o
 .bss.jobtab    0x0046063c        0x4 /mnt/md0/miranda/openwrt/tmp/cca1aXTG.ltrans2.ltrans.o
 .bss.njobs     0x00460640        0x4 /mnt/md0/miranda/openwrt/tmp/cca1aXTG.ltrans2.ltrans.o
 .bss.curjob    0x00460644        0x4 /mnt/md0/miranda/openwrt/tmp/cca1aXTG.ltrans2.ltrans.o
 .bss.atab.lto_priv.0
                0x00460648        0x4 /mnt/md0/miranda/openwrt/tmp/cca1aXTG.ltrans2.ltrans.o
                0x00460648                atab.lto_priv.0
 .bss.cmdtable.lto_priv.0
                0x0046064c        0x4 /mnt/md0/miranda/openwrt/tmp/cca1aXTG.ltrans2.ltrans.o
                0x0046064c                cmdtable.lto_priv.0
 .bss.cmdedit_prompt.lto_priv.0
                0x00460650        0x4 /mnt/md0/miranda/openwrt/tmp/cca1aXTG.ltrans2.ltrans.o
                0x00460650                cmdedit_prompt.lto_priv.0
 .bss.pathopt.lto_priv.0
                0x00460654        0x4 /mnt/md0/miranda/openwrt/tmp/cca1aXTG.ltrans2.ltrans.o
                0x00460654                pathopt.lto_priv.0
 .bss.ash_ptr_to_globals_var
                0x00460658        0x4 /mnt/md0/miranda/openwrt/tmp/cca1aXTG.ltrans2.ltrans.o
                0x00460658                ash_ptr_to_globals_var
 .bss.optionarg.lto_priv.0
                0x0046065c        0x4 /mnt/md0/miranda/openwrt/tmp/cca1aXTG.ltrans2.ltrans.o
                0x0046065c                optionarg.lto_priv.0
 .bss.argptr.lto_priv.0
                0x00460660        0x4 /mnt/md0/miranda/openwrt/tmp/cca1aXTG.ltrans2.ltrans.o
                0x00460660                argptr.lto_priv.0
 .bss.optptr.lto_priv.0
                0x00460664        0x4 /mnt/md0/miranda/openwrt/tmp/cca1aXTG.ltrans2.ltrans.o
                0x00460664                optptr.lto_priv.0
 .bss.ash_ptr_to_globals_memstack
                0x00460668        0x4 /mnt/md0/miranda/openwrt/tmp/cca1aXTG.ltrans2.ltrans.o
                0x00460668                ash_ptr_to_globals_memstack
 .bss.commandname.lto_priv.0
                0x0046066c        0x4 /mnt/md0/miranda/openwrt/tmp/cca1aXTG.ltrans2.ltrans.o
                0x0046066c                commandname.lto_priv.0
 .bss.ash_ptr_to_globals_misc
                0x00460670        0x4 /mnt/md0/miranda/openwrt/tmp/cca1aXTG.ltrans2.ltrans.o
                0x00460670                ash_ptr_to_globals_misc
 .bss.cache_user_group.lto_priv.0
                0x00460674        0x4 /mnt/md0/miranda/openwrt/tmp/cca1aXTG.ltrans2.ltrans.o
                0x00460674                cache_user_group.lto_priv.0
 .bss.heredoclist
                0x00460678        0x4 /mnt/md0/miranda/openwrt/tmp/cca1aXTG.ltrans3.ltrans.o
 .bss.heredoc   0x0046067c        0x4 /mnt/md0/miranda/openwrt/tmp/cca1aXTG.ltrans3.ltrans.o
 .bss.redirnode
                0x00460680        0x4 /mnt/md0/miranda/openwrt/tmp/cca1aXTG.ltrans3.ltrans.o
 .bss.backquotelist
                0x00460684        0x4 /mnt/md0/miranda/openwrt/tmp/cca1aXTG.ltrans3.ltrans.o
 .bss.wordtext  0x00460688        0x4 /mnt/md0/miranda/openwrt/tmp/cca1aXTG.ltrans3.ltrans.o
 .bss.lineedit_ptr_to_statics
                0x0046068c        0x4 /mnt/md0/miranda/openwrt/tmp/cca1aXTG.ltrans3.ltrans.o
                0x0046068c                lineedit_ptr_to_statics
 .bss.funcline  0x00460690        0x4 /mnt/md0/miranda/openwrt/tmp/cca1aXTG.ltrans3.ltrans.o
 .bss.localvar_stack
                0x00460694        0x4 /mnt/md0/miranda/openwrt/tmp/cca1aXTG.ltrans3.ltrans.o
 .bss.global_crc32_table
                0x00460698        0x4 /mnt/md0/miranda/openwrt/tmp/cca1aXTG.ltrans4.ltrans.o
 .bss.test_ptr_to_statics
                0x0046069c        0x4 /mnt/md0/miranda/openwrt/tmp/cca1aXTG.ltrans5.ltrans.o
 .bss.msgs.0    0x004606a0        0x4 /mnt/md0/miranda/openwrt/tmp/cca1aXTG.ltrans7.ltrans.o
 .bss.ino_dev_hashtable
                0x004606a4        0x4 /mnt/md0/miranda/openwrt/tmp/cca1aXTG.ltrans7.ltrans.o
 .bss.cache.0   0x004606a8        0x4 /mnt/md0/miranda/openwrt/tmp/cca1aXTG.ltrans7.ltrans.o
 .bss.saved.0   0x004606ac       0x10 /mnt/md0/miranda/openwrt/tmp/cca1aXTG.ltrans7.ltrans.o
 .bss._SL_      0x004606bc        0x1 /mnt/md0/miranda/openwrt/tmp/cca1aXTG.ltrans0.ltrans.o
                0x004606bc                _SL_
 .bss.preferred_family
                0x004606bd        0x1 /mnt/md0/miranda/openwrt/tmp/cca1aXTG.ltrans0.ltrans.o
                0x004606bd                preferred_family
 .bss.oneline   0x004606be        0x1 /mnt/md0/miranda/openwrt/tmp/cca1aXTG.ltrans0.ltrans.o
                0x004606be                oneline
 .bss.bb_got_signal
                0x004606bf        0x1 /mnt/md0/miranda/openwrt/tmp/cca1aXTG.ltrans0.ltrans.o
                0x004606bf                bb_got_signal
 .bss.wrote_pidfile
                0x004606c0        0x1 /mnt/md0/miranda/openwrt/tmp/cca1aXTG.ltrans1.ltrans.o
                0x004606c0                wrote_pidfile
 .bss.did_banner.8
                0x004606c1        0x1 /mnt/md0/miranda/openwrt/tmp/cca1aXTG.ltrans2.ltrans.o
 .bss.is_interactive.9
                0x004606c2        0x1 /mnt/md0/miranda/openwrt/tmp/cca1aXTG.ltrans2.ltrans.o
 .bss.evalskip.lto_priv.0
                0x004606c3        0x1 /mnt/md0/miranda/openwrt/tmp/cca1aXTG.ltrans2.ltrans.o
                0x004606c3                evalskip.lto_priv.0
 .bss.doing_jobctl.lto_priv.0
                0x004606c4        0x1 /mnt/md0/miranda/openwrt/tmp/cca1aXTG.ltrans2.ltrans.o
                0x004606c4                doing_jobctl.lto_priv.0
 .bss.needprompt.lto_priv.0
                0x004606c5        0x1 /mnt/md0/miranda/openwrt/tmp/cca1aXTG.ltrans2.ltrans.o
                0x004606c5                needprompt.lto_priv.0
 .bss.quoteflag
                0x004606c6        0x1 /mnt/md0/miranda/openwrt/tmp/cca1aXTG.ltrans3.ltrans.o
 .bss.tokpushback
                0x004606c7        0x1 /mnt/md0/miranda/openwrt/tmp/cca1aXTG.ltrans3.ltrans.o
 .bss.lasttoken
                0x004606c8        0x1 /mnt/md0/miranda/openwrt/tmp/cca1aXTG.ltrans3.ltrans.o
 .bss.doprompt  0x004606c9        0x1 /mnt/md0/miranda/openwrt/tmp/cca1aXTG.ltrans3.ltrans.o
 .bss.checkkwd  0x004606ca        0x1 /mnt/md0/miranda/openwrt/tmp/cca1aXTG.ltrans3.ltrans.o
 .bss.warned.0  0x004606cb        0x1 /mnt/md0/miranda/openwrt/tmp/cca1aXTG.ltrans4.ltrans.o
 .bss.cur_saved.1
                0x004606cc        0x1 /mnt/md0/miranda/openwrt/tmp/cca1aXTG.ltrans7.ltrans.o
 *(SORT_BY_ALIGNMENT(COMMON))
                0x004606d0                        . = ALIGN ((. != 0x0)?0x4:0x1)
 *fill*         0x004606cd        0x3 
                0x004606d0                        . = ALIGN (0x4)
                0x004606d0                        . = SEGMENT_START ("ldata-segment", .)
                0x004606d0                        . = ALIGN (0x4)
                0x004606d0                        _end = .
                [!provide]                        PROVIDE (end = .)
                0x004606d0                        . = DATA_SEGMENT_END (.)

.stab
 *(SORT_BY_ALIGNMENT(.stab))

.stabstr
 *(SORT_BY_ALIGNMENT(.stabstr))

.stab.excl
 *(SORT_BY_ALIGNMENT(.stab.excl))

.stab.exclstr
 *(SORT_BY_ALIGNMENT(.stab.exclstr))

.stab.index
 *(SORT_BY_ALIGNMENT(.stab.index))

.stab.indexstr
 *(SORT_BY_ALIGNMENT(.stab.indexstr))

.comment        0x00000000       0x33
 *(SORT_BY_ALIGNMENT(.comment))
 .comment       0x00000000       0x33 /mnt/md0/miranda/openwrt/staging_dir/toolchain-mips_24kc_gcc-12.3.0_musl/lib/gcc/mips-openwrt-linux-musl/12.3.0/../../../../mips-openwrt-linux-musl/lib/crt1.o
                                 0x34 (size before relaxing)
 .comment       0x00000033       0x34 /mnt/md0/miranda/openwrt/staging_dir/toolchain-mips_24kc_gcc-12.3.0_musl/lib/gcc/mips-openwrt-linux-musl/12.3.0/crtbegin.o
 .comment       0x00000033       0x34 /mnt/md0/miranda/openwrt/tmp/cca1aXTG.ltrans0.ltrans.o
 .comment       0x00000033       0x34 /mnt/md0/miranda/openwrt/tmp/cca1aXTG.ltrans1.ltrans.o
 .comment       0x00000033       0x34 /mnt/md0/miranda/openwrt/tmp/cca1aXTG.ltrans2.ltrans.o
 .comment       0x00000033       0x34 /mnt/md0/miranda/openwrt/tmp/cca1aXTG.ltrans3.ltrans.o
 .comment       0x00000033       0x34 /mnt/md0/miranda/openwrt/tmp/cca1aXTG.ltrans4.ltrans.o
 .comment       0x00000033       0x34 /mnt/md0/miranda/openwrt/tmp/cca1aXTG.ltrans5.ltrans.o
 .comment       0x00000033       0x34 /mnt/md0/miranda/openwrt/tmp/cca1aXTG.ltrans6.ltrans.o
 .comment       0x00000033       0x34 /mnt/md0/miranda/openwrt/tmp/cca1aXTG.ltrans7.ltrans.o
 .comment       0x00000033       0x34 /mnt/md0/miranda/openwrt/staging_dir/toolchain-mips_24kc_gcc-12.3.0_musl/lib/gcc/mips-openwrt-linux-musl/12.3.0/crtend.o

.pdr            0x00000000        0x0
 .pdr           0x00000000        0x0 /mnt/md0/miranda/openwrt/staging_dir/toolchain-mips_24kc_gcc-12.3.0_musl/lib/gcc/mips-openwrt-linux-musl/12.3.0/../../../../mips-openwrt-linux-musl/lib/crti.o
 .pdr           0x00000000        0x0 /mnt/md0/miranda/openwrt/staging_dir/toolchain-mips_24kc_gcc-12.3.0_musl/lib/gcc/mips-openwrt-linux-musl/12.3.0/crtbegin.o
 .pdr           0x00000000        0x0 /mnt/md0/miranda/openwrt/staging_dir/toolchain-mips_24kc_gcc-12.3.0_musl/lib/gcc/mips-openwrt-linux-musl/12.3.0/crtend.o
 .pdr           0x00000000        0x0 /mnt/md0/miranda/openwrt/staging_dir/toolchain-mips_24kc_gcc-12.3.0_musl/lib/gcc/mips-openwrt-linux-musl/12.3.0/../../../../mips-openwrt-linux-musl/lib/crtn.o

.gnu.build.attributes
 *(SORT_BY_ALIGNMENT(.gnu.build.attributes) SORT_BY_ALIGNMENT(.gnu.build.attributes.*))

.debug
 *(SORT_BY_ALIGNMENT(.debug))

.line
 *(SORT_BY_ALIGNMENT(.line))

.debug_srcinfo
 *(SORT_BY_ALIGNMENT(.debug_srcinfo))

.debug_sfnames
 *(SORT_BY_ALIGNMENT(.debug_sfnames))

.debug_aranges  0x00000000       0x70
 *(SORT_BY_ALIGNMENT(.debug_aranges))
 .debug_aranges
                0x00000000       0x28 /mnt/md0/miranda/openwrt/staging_dir/toolchain-mips_24kc_gcc-12.3.0_musl/lib/gcc/mips-openwrt-linux-musl/12.3.0/../../../../mips-openwrt-linux-musl/lib/crti.o
 .debug_aranges
                0x00000028       0x28 /mnt/md0/miranda/openwrt/staging_dir/toolchain-mips_24kc_gcc-12.3.0_musl/lib/gcc/mips-openwrt-linux-musl/12.3.0/../../../../mips-openwrt-linux-musl/lib/crtn.o
 .debug_aranges
                0x00000050       0x20 /mnt/md0/miranda/openwrt/staging_dir/toolchain-mips_24kc_gcc-12.3.0_musl/lib/gcc/mips-openwrt-linux-musl/12.3.0/../../../../mips-openwrt-linux-musl/lib/crt1.o

.debug_pubnames
 *(SORT_BY_ALIGNMENT(.debug_pubnames))

.debug_info     0x00000000      0x18a
 *(SORT_BY_ALIGNMENT(.debug_info) SORT_BY_ALIGNMENT(.gnu.linkonce.wi.*))
 .debug_info    0x00000000      0x144 /mnt/md0/miranda/openwrt/staging_dir/toolchain-mips_24kc_gcc-12.3.0_musl/lib/gcc/mips-openwrt-linux-musl/12.3.0/../../../../mips-openwrt-linux-musl/lib/crt1.o
 .debug_info    0x00000144       0x23 /mnt/md0/miranda/openwrt/staging_dir/toolchain-mips_24kc_gcc-12.3.0_musl/lib/gcc/mips-openwrt-linux-musl/12.3.0/../../../../mips-openwrt-linux-musl/lib/crti.o
 .debug_info    0x00000167       0x23 /mnt/md0/miranda/openwrt/staging_dir/toolchain-mips_24kc_gcc-12.3.0_musl/lib/gcc/mips-openwrt-linux-musl/12.3.0/../../../../mips-openwrt-linux-musl/lib/crtn.o

.debug_abbrev   0x00000000      0x10b
 *(SORT_BY_ALIGNMENT(.debug_abbrev))
 .debug_abbrev  0x00000000       0xe7 /mnt/md0/miranda/openwrt/staging_dir/toolchain-mips_24kc_gcc-12.3.0_musl/lib/gcc/mips-openwrt-linux-musl/12.3.0/../../../../mips-openwrt-linux-musl/lib/crt1.o
 .debug_abbrev  0x000000e7       0x12 /mnt/md0/miranda/openwrt/staging_dir/toolchain-mips_24kc_gcc-12.3.0_musl/lib/gcc/mips-openwrt-linux-musl/12.3.0/../../../../mips-openwrt-linux-musl/lib/crti.o
 .debug_abbrev  0x000000f9       0x12 /mnt/md0/miranda/openwrt/staging_dir/toolchain-mips_24kc_gcc-12.3.0_musl/lib/gcc/mips-openwrt-linux-musl/12.3.0/../../../../mips-openwrt-linux-musl/lib/crtn.o

.debug_line     0x00000000      0x10f
 *(SORT_BY_ALIGNMENT(.debug_line) SORT_BY_ALIGNMENT(.debug_line.*) SORT_BY_ALIGNMENT(.debug_line_end))
 .debug_line    0x00000000       0x59 /mnt/md0/miranda/openwrt/staging_dir/toolchain-mips_24kc_gcc-12.3.0_musl/lib/gcc/mips-openwrt-linux-musl/12.3.0/../../../../mips-openwrt-linux-musl/lib/crt1.o
 .debug_line    0x00000059       0x5a /mnt/md0/miranda/openwrt/staging_dir/toolchain-mips_24kc_gcc-12.3.0_musl/lib/gcc/mips-openwrt-linux-musl/12.3.0/../../../../mips-openwrt-linux-musl/lib/crti.o
 .debug_line    0x000000b3       0x5c /mnt/md0/miranda/openwrt/staging_dir/toolchain-mips_24kc_gcc-12.3.0_musl/lib/gcc/mips-openwrt-linux-musl/12.3.0/../../../../mips-openwrt-linux-musl/lib/crtn.o

.debug_frame    0x00000000       0x2c
 *(SORT_BY_ALIGNMENT(.debug_frame))
 .debug_frame   0x00000000       0x2c /mnt/md0/miranda/openwrt/staging_dir/toolchain-mips_24kc_gcc-12.3.0_musl/lib/gcc/mips-openwrt-linux-musl/12.3.0/../../../../mips-openwrt-linux-musl/lib/crt1.o

.debug_str      0x00000000      0x24c
 *(SORT_BY_ALIGNMENT(.debug_str))
 .debug_str     0x00000000      0x21e /mnt/md0/miranda/openwrt/staging_dir/toolchain-mips_24kc_gcc-12.3.0_musl/lib/gcc/mips-openwrt-linux-musl/12.3.0/../../../../mips-openwrt-linux-musl/lib/crt1.o
                                0x231 (size before relaxing)
 .debug_str     0x0000021e       0x1e /mnt/md0/miranda/openwrt/staging_dir/toolchain-mips_24kc_gcc-12.3.0_musl/lib/gcc/mips-openwrt-linux-musl/12.3.0/../../../../mips-openwrt-linux-musl/lib/crti.o
                                 0x70 (size before relaxing)
 .debug_str     0x0000023c       0x10 /mnt/md0/miranda/openwrt/staging_dir/toolchain-mips_24kc_gcc-12.3.0_musl/lib/gcc/mips-openwrt-linux-musl/12.3.0/../../../../mips-openwrt-linux-musl/lib/crtn.o
                                 0x70 (size before relaxing)

.debug_loc
 *(SORT_BY_ALIGNMENT(.debug_loc))

.debug_macinfo
 *(SORT_BY_ALIGNMENT(.debug_macinfo))

.debug_weaknames
 *(SORT_BY_ALIGNMENT(.debug_weaknames))

.debug_funcnames
 *(SORT_BY_ALIGNMENT(.debug_funcnames))

.debug_typenames
 *(SORT_BY_ALIGNMENT(.debug_typenames))

.debug_varnames
 *(SORT_BY_ALIGNMENT(.debug_varnames))

.debug_pubtypes
 *(SORT_BY_ALIGNMENT(.debug_pubtypes))

.debug_ranges
 *(SORT_BY_ALIGNMENT(.debug_ranges))

.debug_addr
 *(SORT_BY_ALIGNMENT(.debug_addr))

.debug_line_str
                0x00000000       0x69
 *(SORT_BY_ALIGNMENT(.debug_line_str))
 .debug_line_str
                0x00000000       0x62 /mnt/md0/miranda/openwrt/staging_dir/toolchain-mips_24kc_gcc-12.3.0_musl/lib/gcc/mips-openwrt-linux-musl/12.3.0/../../../../mips-openwrt-linux-musl/lib/crti.o
 .debug_line_str
                0x00000062        0x7 /mnt/md0/miranda/openwrt/staging_dir/toolchain-mips_24kc_gcc-12.3.0_musl/lib/gcc/mips-openwrt-linux-musl/12.3.0/../../../../mips-openwrt-linux-musl/lib/crtn.o
                                 0x62 (size before relaxing)

.debug_loclists
                0x00000000       0x5a
 *(SORT_BY_ALIGNMENT(.debug_loclists))
 .debug_loclists
                0x00000000       0x5a /mnt/md0/miranda/openwrt/staging_dir/toolchain-mips_24kc_gcc-12.3.0_musl/lib/gcc/mips-openwrt-linux-musl/12.3.0/../../../../mips-openwrt-linux-musl/lib/crt1.o

.debug_macro
 *(SORT_BY_ALIGNMENT(.debug_macro))

.debug_names
 *(SORT_BY_ALIGNMENT(.debug_names))

.debug_rnglists
                0x00000000       0x45
 *(SORT_BY_ALIGNMENT(.debug_rnglists))
 .debug_rnglists
                0x00000000       0x13 /mnt/md0/miranda/openwrt/staging_dir/toolchain-mips_24kc_gcc-12.3.0_musl/lib/gcc/mips-openwrt-linux-musl/12.3.0/../../../../mips-openwrt-linux-musl/lib/crt1.o
 .debug_rnglists
                0x00000013       0x19 /mnt/md0/miranda/openwrt/staging_dir/toolchain-mips_24kc_gcc-12.3.0_musl/lib/gcc/mips-openwrt-linux-musl/12.3.0/../../../../mips-openwrt-linux-musl/lib/crti.o
 .debug_rnglists
                0x0000002c       0x19 /mnt/md0/miranda/openwrt/staging_dir/toolchain-mips_24kc_gcc-12.3.0_musl/lib/gcc/mips-openwrt-linux-musl/12.3.0/../../../../mips-openwrt-linux-musl/lib/crtn.o

.debug_str_offsets
 *(SORT_BY_ALIGNMENT(.debug_str_offsets))

.debug_sup
 *(SORT_BY_ALIGNMENT(.debug_sup))

.gnu.attributes
                0x00000000       0x10
 *(SORT_BY_ALIGNMENT(.gnu.attributes))
 .gnu.attributes
                0x00000000       0x10 /mnt/md0/miranda/openwrt/staging_dir/toolchain-mips_24kc_gcc-12.3.0_musl/lib/gcc/mips-openwrt-linux-musl/12.3.0/../../../../mips-openwrt-linux-musl/lib/crt1.o
 .gnu.attributes
                0x00000010       0x10 /mnt/md0/miranda/openwrt/staging_dir/toolchain-mips_24kc_gcc-12.3.0_musl/lib/gcc/mips-openwrt-linux-musl/12.3.0/../../../../mips-openwrt-linux-musl/lib/crti.o
 .gnu.attributes
                0x00000020       0x10 /mnt/md0/miranda/openwrt/staging_dir/toolchain-mips_24kc_gcc-12.3.0_musl/lib/gcc/mips-openwrt-linux-musl/12.3.0/crtbegin.o
 .gnu.attributes
                0x00000030       0x10 /mnt/md0/miranda/openwrt/tmp/cca1aXTG.ltrans0.ltrans.o
 .gnu.attributes
                0x00000040       0x10 /mnt/md0/miranda/openwrt/tmp/cca1aXTG.ltrans1.ltrans.o
 .gnu.attributes
                0x00000050       0x10 /mnt/md0/miranda/openwrt/tmp/cca1aXTG.ltrans2.ltrans.o
 .gnu.attributes
                0x00000060       0x10 /mnt/md0/miranda/openwrt/tmp/cca1aXTG.ltrans3.ltrans.o
 .gnu.attributes
                0x00000070       0x10 /mnt/md0/miranda/openwrt/tmp/cca1aXTG.ltrans4.ltrans.o
 .gnu.attributes
                0x00000080       0x10 /mnt/md0/miranda/openwrt/tmp/cca1aXTG.ltrans5.ltrans.o
 .gnu.attributes
                0x00000090       0x10 /mnt/md0/miranda/openwrt/tmp/cca1aXTG.ltrans6.ltrans.o
 .gnu.attributes
                0x000000a0       0x10 /mnt/md0/miranda/openwrt/tmp/cca1aXTG.ltrans7.ltrans.o
 .gnu.attributes
                0x000000b0       0x10 /mnt/md0/miranda/openwrt/staging_dir/toolchain-mips_24kc_gcc-12.3.0_musl/lib/gcc/mips-openwrt-linux-musl/12.3.0/crtend.o
 .gnu.attributes
                0x000000c0       0x10 /mnt/md0/miranda/openwrt/staging_dir/toolchain-mips_24kc_gcc-12.3.0_musl/lib/gcc/mips-openwrt-linux-musl/12.3.0/../../../../mips-openwrt-linux-musl/lib/crtn.o

.gptab.sdata
 *(SORT_BY_ALIGNMENT(.gptab.data))
 *(SORT_BY_ALIGNMENT(.gptab.sdata))

.gptab.sbss
 *(SORT_BY_ALIGNMENT(.gptab.bss))
 *(SORT_BY_ALIGNMENT(.gptab.sbss))

.mdebug.abi32   0x00000000        0x0
 *(SORT_BY_ALIGNMENT(.mdebug.abi32))
 .mdebug.abi32  0x00000000        0x0 /mnt/md0/miranda/openwrt/staging_dir/toolchain-mips_24kc_gcc-12.3.0_musl/lib/gcc/mips-openwrt-linux-musl/12.3.0/../../../../mips-openwrt-linux-musl/lib/crt1.o
 .mdebug.abi32  0x00000000        0x0 /mnt/md0/miranda/openwrt/staging_dir/toolchain-mips_24kc_gcc-12.3.0_musl/lib/gcc/mips-openwrt-linux-musl/12.3.0/crtbegin.o
 .mdebug.abi32  0x00000000        0x0 /mnt/md0/miranda/openwrt/tmp/cca1aXTG.ltrans0.ltrans.o
 .mdebug.abi32  0x00000000        0x0 /mnt/md0/miranda/openwrt/tmp/cca1aXTG.ltrans1.ltrans.o
 .mdebug.abi32  0x00000000        0x0 /mnt/md0/miranda/openwrt/tmp/cca1aXTG.ltrans2.ltrans.o
 .mdebug.abi32  0x00000000        0x0 /mnt/md0/miranda/openwrt/tmp/cca1aXTG.ltrans3.ltrans.o
 .mdebug.abi32  0x00000000        0x0 /mnt/md0/miranda/openwrt/tmp/cca1aXTG.ltrans4.ltrans.o
 .mdebug.abi32  0x00000000        0x0 /mnt/md0/miranda/openwrt/tmp/cca1aXTG.ltrans5.ltrans.o
 .mdebug.abi32  0x00000000        0x0 /mnt/md0/miranda/openwrt/tmp/cca1aXTG.ltrans6.ltrans.o
 .mdebug.abi32  0x00000000        0x0 /mnt/md0/miranda/openwrt/tmp/cca1aXTG.ltrans7.ltrans.o
 .mdebug.abi32  0x00000000        0x0 /mnt/md0/miranda/openwrt/staging_dir/toolchain-mips_24kc_gcc-12.3.0_musl/lib/gcc/mips-openwrt-linux-musl/12.3.0/crtend.o

.mdebug.abiN32
 *(SORT_BY_ALIGNMENT(.mdebug.abiN32))

.mdebug.abi64
 *(SORT_BY_ALIGNMENT(.mdebug.abi64))

.mdebug.abiO64
 *(SORT_BY_ALIGNMENT(.mdebug.abiO64))

.mdebug.eabi32
 *(SORT_BY_ALIGNMENT(.mdebug.eabi32))

.mdebug.eabi64
 *(SORT_BY_ALIGNMENT(.mdebug.eabi64))

.gcc_compiled_long32
 *(SORT_BY_ALIGNMENT(.gcc_compiled_long32))

.gcc_compiled_long64
 *(SORT_BY_ALIGNMENT(.gcc_compiled_long64))

/DISCARD/
 *(SORT_BY_ALIGNMENT(.note.GNU-stack))
 *(SORT_BY_ALIGNMENT(.gnu_debuglink))
 *(SORT_BY_ALIGNMENT(.gnu.lto_*))
OUTPUT(busybox_unstripped elf32-tradbigmips)
